-----BEGIN RSA PRIVATE KEY-----
MIICXAIBAAKBgQDBPaq6EZMbaSMktSuj7swTKtfTmhf88Sk1bsrzTunWbXtXFj6B
C1gqGubywjNvwmlRjqStDDhZ291g5fv+4V/eseZ0YXVHOaXZ2mgM7vs9d3Iih0mC
n0wriBEq4cIkNZr61WUwXbSRq+/EHKncRNrpG/kZYUA9FCPHAZJPRY/PJwIDAQAB
AoGAIulBLtx99zXHY5pXiAZcWBolY9UzAD+RclXR1KMtG9AruFAMesPR6clyb+kl
4cr9u/5JQfozNAjEtfzWyfVtnD0Zs0XyW5vov18oBxCrki88EqMMwxexgKrpS1La
qJqUTC8AGRzCEGKKEye8XmffL2+VyHJFjjLNLx3FOT99SgECQQD6Xe1idH55qlhi
12LpaAJS6cEYJ7VLwTwSgdKkU1z1SKehmMdlNF5FbX8uWa3p5fB4zbn2AZj0cmaa
eW/62mN7AkEAxZaz+gm+wUWj5Ag6F9pvJZu2jke5Kkaabx4V5tEgC84HBd45TFLx
kjfEi7qZgcFEbRbJy86LYYW+9H7GSCVNRQJAPmVcPPZFcvLmNjPxnbPjKGDDU87J
mwicfQxHv9Zay3KA/IAD6ZAEko74bEfDVRCOPr0exFWflgRQ19y98KmuswJBAIei
mBGANw39fC/A5gAR1lJ+vaaV3aoDpWe5w1cbH2B7IZ8JmVOnbGTvG2C/yzijLxGj
nwrk0hEz+o1jqUFFOfECQE4/1/I7D6jNuox84X4AWdgsFKGWseyp03oC/DMljt7E
xD4Kq4+mu6htoVqJ3xGE1WYR9y7lJehvm271osqLwd4=
-----END RSA PRIVATE KEY-----
Certificate:
    Data:
        Version: 1 (0x0)
        Serial Number: 2 (0x2)
        Signature Algorithm: md5WithRSAEncryption
        Issuer: O=Cavisson Systems, Inc./emailAddress=info@cavisson.com, L=Fremont, ST=California, C=US, CN=Root
        Validity
            Not Before: Aug 11 14:25:33 2009 GMT
            Not After : Aug  9 14:25:33 2019 GMT
        Subject: C=US, ST=California, O=Cavisson Systems, Inc., CN=Client_revoke
        Subject Public Key Info:
            Public Key Algorithm: rsaEncryption
            RSA Public Key: (1024 bit)
                Modulus (1024 bit):
                    00:c1:3d:aa:ba:11:93:1b:69:23:24:b5:2b:a3:ee:
                    cc:13:2a:d7:d3:9a:17:fc:f1:29:35:6e:ca:f3:4e:
                    e9:d6:6d:7b:57:16:3e:81:0b:58:2a:1a:e6:f2:c2:
                    33:6f:c2:69:51:8e:a4:ad:0c:38:59:db:dd:60:e5:
                    fb:fe:e1:5f:de:b1:e6:74:61:75:47:39:a5:d9:da:
                    68:0c:ee:fb:3d:77:72:22:87:49:82:9f:4c:2b:88:
                    11:2a:e1:c2:24:35:9a:fa:d5:65:30:5d:b4:91:ab:
                    ef:c4:1c:a9:dc:44:da:e9:1b:f9:19:61:40:3d:14:
                    23:c7:01:92:4f:45:8f:cf:27
                Exponent: 65537 (0x10001)
    Signature Algorithm: md5WithRSAEncryption
        78:3f:a1:51:a2:8d:19:28:6e:e5:36:ed:88:1d:b5:24:f8:49:
        8e:87:5b:fa:50:59:e8:51:65:bb:53:88:e0:f6:4b:35:dd:c3:
        6f:25:e0:cd:71:0c:54:65:43:48:ef:73:7b:71:56:88:5d:51:
        76:c2:be:70:13:0b:de:43:8b:94:fe:62:48:cb:50:6c:d9:05:
        9b:79:4c:af:4a:cd:45:3d:3e:af:ff:68:51:2e:91:9f:f8:a9:
        e9:3f:cb:7f:84:36:db:cc:55:2c:19:ef:99:d6:a4:96:1f:d8:
        2f:ac:26:64:0a:fd:37:cd:7c:5c:e6:7a:dd:42:0f:1b:5d:3a:
        70:78
-----BEGIN CERTIFICATE-----
MIICUTCCAboCAQIwDQYJKoZIhvcNAQEEBQAwgYYxHzAdBgNVBAoTFkNhdmlzc29u
IFN5c3RlbXMsIEluYy4xIDAeBgkqhkiG9w0BCQEWEWluZm9AY2F2aXNzb24uY29t
MRAwDgYDVQQHEwdGcmVtb250MRMwEQYDVQQIEwpDYWxpZm9ybmlhMQswCQYDVQQG
EwJVUzENMAsGA1UEAxMEUm9vdDAeFw0wOTA4MTExNDI1MzNaFw0xOTA4MDkxNDI1
MzNaMFsxCzAJBgNVBAYTAlVTMRMwEQYDVQQIEwpDYWxpZm9ybmlhMR8wHQYDVQQK
ExZDYXZpc3NvbiBTeXN0ZW1zLCBJbmMuMRYwFAYDVQQDFA1DbGllbnRfcmV2b2tl
MIGfMA0GCSqGSIb3DQEBAQUAA4GNADCBiQKBgQDBPaq6EZMbaSMktSuj7swTKtfT
mhf88Sk1bsrzTunWbXtXFj6BC1gqGubywjNvwmlRjqStDDhZ291g5fv+4V/eseZ0
YXVHOaXZ2mgM7vs9d3Iih0mCn0wriBEq4cIkNZr61WUwXbSRq+/EHKncRNrpG/kZ
YUA9FCPHAZJPRY/PJwIDAQABMA0GCSqGSIb3DQEBBAUAA4GBAHg/oVGijRkobuU2
7YgdtST4SY6HW/pQWehRZbtTiOD2SzXdw28l4M1xDFRlQ0jvc3txVohdUXbCvnAT
C95Di5T+YkjLUGzZBZt5TK9KzUU9Pq//aFEukZ/4qek/y3+ENtvMVSwZ75nWpJYf
2C+sJmQK/TfNfFzmet1CDxtdOnB4
-----END CERTIFICATE-----
