-----BEGIN RSA PRIVATE KEY-----
MIICXAIBAAKBgQCseicMKzs26oA38i+aSx6vBO3BRtwxQNqug3E919Q3T7zdPjrD
51cexan3XUubnvfZtu57cLMkXZFDo9kOegQjIF+yETI5/Fh7NwhwqHYYaUeeu5hc
iYmCTC2sP3aTKpqsDoPsEfvyBGlX79QcDtbKZl0xbQ2+JDfVOhuUg1vA4wIDAQAB
AoGADeSdBpbo4yiKgXcprHUGmLR97kal7/W4Z7xAv+mFt5rdrLiZhTQ6SUlEwp8q
OvPYJRpeJWVTmMdMrzUgg9ECSiwz348WO8jqQ/oAou85H6vZyytiKx2sxI8HEBTJ
KIOCqFXzJi5vT8AH+v8bUvCA281Uth6LFhC01yLMNMyFfWECQQDUDwj8DfEvrnk4
IjHTEv52rL3vyzD7nxbGq+WKtBEpaxFiAB4TLrIhPUD5XUaXiH+CY5hRCD0y7vLe
ZUFj1mxzAkEA0Dd0hFk+/xhvGCKTOE/nII4Gtbhj9eR+DmAdtjP4JvRaGU/cd3rA
ku17iP9kC/+SaPgfFgv47UOnjXNTVI8t0QJASuZ0mfKiueC6WCVby93tmyUwgT4X
swhiFxIoJXGsjiCPJzo7ZTMdH7hu9qUHhgZkYz2iUxzB4PedOQgyrHzUGQJBAIqM
rBq5LCMgxiPgNehduuU9vJdFCDcCASNdr8ejEzgQlreLHZ/fba8XGYHSt2cIfAsf
N8g61TxELYUBPWziDVECQAtZ/cx4OubEtCYkDEmJw1HJ3K/R/MqZmDU7O+Fb+5+m
5Fbuu/GU6zsUU1eE8Zt7kpKAA9TiuWcGZ9LGdzcNsqI=
-----END RSA PRIVATE KEY-----
Certificate:
    Data:
        Version: 1 (0x0)
        Serial Number: 2 (0x2)
        Signature Algorithm: md5WithRSAEncryption
        Issuer: O=Cavisson Systems, Inc./emailAddress=info@cavisson.com, L=Fremont, ST=California, C=US, CN=Root
        Validity
            Not Before: Aug 11 14:28:08 2009 GMT
            Not After : Aug  9 14:28:08 2019 GMT
        Subject: C=US, ST=California, O=Cavisson Systems, Inc., CN=Client_revoke
        Subject Public Key Info:
            Public Key Algorithm: rsaEncryption
            RSA Public Key: (1024 bit)
                Modulus (1024 bit):
                    00:ac:7a:27:0c:2b:3b:36:ea:80:37:f2:2f:9a:4b:
                    1e:af:04:ed:c1:46:dc:31:40:da:ae:83:71:3d:d7:
                    d4:37:4f:bc:dd:3e:3a:c3:e7:57:1e:c5:a9:f7:5d:
                    4b:9b:9e:f7:d9:b6:ee:7b:70:b3:24:5d:91:43:a3:
                    d9:0e:7a:04:23:20:5f:b2:11:32:39:fc:58:7b:37:
                    08:70:a8:76:18:69:47:9e:bb:98:5c:89:89:82:4c:
                    2d:ac:3f:76:93:2a:9a:ac:0e:83:ec:11:fb:f2:04:
                    69:57:ef:d4:1c:0e:d6:ca:66:5d:31:6d:0d:be:24:
                    37:d5:3a:1b:94:83:5b:c0:e3
                Exponent: 65537 (0x10001)
    Signature Algorithm: md5WithRSAEncryption
        18:cb:cc:c5:c2:56:89:82:95:09:e3:3d:c5:45:81:d1:02:eb:
        94:27:a1:4b:96:d4:f6:6b:84:8d:0e:69:fa:d0:4b:08:c7:e5:
        03:e2:8d:92:36:12:d7:be:e9:fb:c3:05:27:cb:2f:58:59:fc:
        9e:c0:65:44:e0:cb:9f:37:3f:a3:e1:2e:9c:5b:08:f2:8f:9a:
        f3:a9:af:65:e7:a5:ff:0c:d8:f9:85:08:69:b5:53:f6:93:ee:
        b4:05:f3:75:14:a9:dc:04:f6:7b:a3:60:b9:73:cb:d4:e1:b7:
        c2:7a:6f:1b:b3:78:2a:5d:1e:9b:d4:15:5e:01:6e:bd:f4:9a:
        1e:75
-----BEGIN CERTIFICATE-----
MIICUTCCAboCAQIwDQYJKoZIhvcNAQEEBQAwgYYxHzAdBgNVBAoTFkNhdmlzc29u
IFN5c3RlbXMsIEluYy4xIDAeBgkqhkiG9w0BCQEWEWluZm9AY2F2aXNzb24uY29t
MRAwDgYDVQQHEwdGcmVtb250MRMwEQYDVQQIEwpDYWxpZm9ybmlhMQswCQYDVQQG
EwJVUzENMAsGA1UEAxMEUm9vdDAeFw0wOTA4MTExNDI4MDhaFw0xOTA4MDkxNDI4
MDhaMFsxCzAJBgNVBAYTAlVTMRMwEQYDVQQIEwpDYWxpZm9ybmlhMR8wHQYDVQQK
ExZDYXZpc3NvbiBTeXN0ZW1zLCBJbmMuMRYwFAYDVQQDFA1DbGllbnRfcmV2b2tl
MIGfMA0GCSqGSIb3DQEBAQUAA4GNADCBiQKBgQCseicMKzs26oA38i+aSx6vBO3B
RtwxQNqug3E919Q3T7zdPjrD51cexan3XUubnvfZtu57cLMkXZFDo9kOegQjIF+y
ETI5/Fh7NwhwqHYYaUeeu5hciYmCTC2sP3aTKpqsDoPsEfvyBGlX79QcDtbKZl0x
bQ2+JDfVOhuUg1vA4wIDAQABMA0GCSqGSIb3DQEBBAUAA4GBABjLzMXCVomClQnj
PcVFgdEC65QnoUuW1PZrhI0OafrQSwjH5QPijZI2Ete+6fvDBSfLL1hZ/J7AZUTg
y583P6PhLpxbCPKPmvOpr2Xnpf8M2PmFCGm1U/aT7rQF83UUqdwE9nujYLlzy9Th
t8J6bxuzeCpdHpvUFV4Bbr30mh51
-----END CERTIFICATE-----
