-----BEGIN RSA PRIVATE KEY-----
MIICXAIBAAKBgQDfVqsCiQ3lwJW1ThFISfTLmRTJZa77yBFATfxuRtgRDlgS6IDu
nR7CXEkjjuP2KQL76wVfv8btX5B4j3PMB1KjXW2TVR5vNjDJvd9FKHrMYXipcxuP
M093ilA4uUcEj+dss1IFLMwXN7K4Ynx6QhML1weDi4qjNRYKZ68eFOuXIwIDAQAB
AoGAJRc7p1wjlrh5JHcmn57IrNdrgFcGzIHZe5h4B8h0McD0F4/NedNWPGkfLGya
p1MAT94kMlajLuDkGWGZlZTRwEhhLkWSfB88AGf/i3Yanee6f2cfUdA+uRn/0ZZC
Cj3hFBGqojhogm1abee7VGnuS2taLJWY/WpB0NH4/8dFuMECQQDzBZpA09HlQvOl
Lq9EnKCdgJ6/vZmq7/9iz/LxSELHZOe5GnnDeQSRvLFK43TZq+HS18Xg2gpi3itz
lGoud3L7AkEA60P4i0nqhJPmv8hOoWV2UXXZ7XJCUJGtk5Syxk937hCiFB7Nqx5R
1AqmOtmPBY1UgM8ee8yoLKZwsXNhwmJz+QJAAyMZYKjbVshMeN9nZ81VzXKxmewK
pcg/Vbk1e6PhKM3Gp/8Nf1Z6lp8G8t6IzZ6IZb5fUY2/AJO5n95UmJD2LQJATLUE
vKWFCWUPv0gYGxdx1G2QeJLgfFSDO7Mn9vDCMaTKs7S3aiugknpGaLm2oCDMhJMD
ZWn9C1HZPIJaRX7EQQJBAJ//7L/cmE+OaHXFUPe9cS0EDIuNR3EDs14sj48EGjau
KWwC34byCHJQ1pcq5B3UXkGybD/aGgUa6pz4gLB2fVU=
-----END RSA PRIVATE KEY-----
Certificate:
    Data:
        Version: 1 (0x0)
        Serial Number: 1 (0x1)
        Signature Algorithm: md5WithRSAEncryption
        Issuer: O=Cavisson Systems, Inc./emailAddress=info@cavisson.com, L=Fremont, ST=California, C=US, CN=Root
        Validity
            Not Before: Aug 11 14:25:33 2009 GMT
            Not After : Aug  9 14:25:33 2019 GMT
        Subject: C=US, ST=California, O=Cavisson Systems, Inc., CN=Client
        Subject Public Key Info:
            Public Key Algorithm: rsaEncryption
            RSA Public Key: (1024 bit)
                Modulus (1024 bit):
                    00:df:56:ab:02:89:0d:e5:c0:95:b5:4e:11:48:49:
                    f4:cb:99:14:c9:65:ae:fb:c8:11:40:4d:fc:6e:46:
                    d8:11:0e:58:12:e8:80:ee:9d:1e:c2:5c:49:23:8e:
                    e3:f6:29:02:fb:eb:05:5f:bf:c6:ed:5f:90:78:8f:
                    73:cc:07:52:a3:5d:6d:93:55:1e:6f:36:30:c9:bd:
                    df:45:28:7a:cc:61:78:a9:73:1b:8f:33:4f:77:8a:
                    50:38:b9:47:04:8f:e7:6c:b3:52:05:2c:cc:17:37:
                    b2:b8:62:7c:7a:42:13:0b:d7:07:83:8b:8a:a3:35:
                    16:0a:67:af:1e:14:eb:97:23
                Exponent: 65537 (0x10001)
    Signature Algorithm: md5WithRSAEncryption
        09:50:19:1f:08:6c:02:69:4d:97:ee:ad:15:71:45:48:d3:59:
        22:67:9a:c8:4e:c2:4f:d7:2e:63:d7:fb:5d:46:30:2c:16:42:
        38:8a:19:6b:13:51:8f:f3:f9:be:97:aa:78:a2:e3:8f:2e:52:
        5a:0a:2b:66:51:6f:ab:88:f5:d3:45:fb:99:4d:e7:f3:d5:2c:
        f0:49:e5:c3:0d:d8:e1:9f:89:c3:5e:98:fe:ac:ed:2e:10:ee:
        5f:e8:71:af:a3:24:94:1a:86:9c:1e:46:09:f0:a5:48:e7:b5:
        ef:0d:64:a0:63:64:c1:ac:75:87:5b:ee:91:d9:57:6e:24:d2:
        e3:d5
-----BEGIN CERTIFICATE-----
MIICSjCCAbMCAQEwDQYJKoZIhvcNAQEEBQAwgYYxHzAdBgNVBAoTFkNhdmlzc29u
IFN5c3RlbXMsIEluYy4xIDAeBgkqhkiG9w0BCQEWEWluZm9AY2F2aXNzb24uY29t
MRAwDgYDVQQHEwdGcmVtb250MRMwEQYDVQQIEwpDYWxpZm9ybmlhMQswCQYDVQQG
EwJVUzENMAsGA1UEAxMEUm9vdDAeFw0wOTA4MTExNDI1MzNaFw0xOTA4MDkxNDI1
MzNaMFQxCzAJBgNVBAYTAlVTMRMwEQYDVQQIEwpDYWxpZm9ybmlhMR8wHQYDVQQK
ExZDYXZpc3NvbiBTeXN0ZW1zLCBJbmMuMQ8wDQYDVQQDEwZDbGllbnQwgZ8wDQYJ
KoZIhvcNAQEBBQADgY0AMIGJAoGBAN9WqwKJDeXAlbVOEUhJ9MuZFMllrvvIEUBN
/G5G2BEOWBLogO6dHsJcSSOO4/YpAvvrBV+/xu1fkHiPc8wHUqNdbZNVHm82MMm9
30UoesxheKlzG48zT3eKUDi5RwSP52yzUgUszBc3srhifHpCEwvXB4OLiqM1Fgpn
rx4U65cjAgMBAAEwDQYJKoZIhvcNAQEEBQADgYEACVAZHwhsAmlNl+6tFXFFSNNZ
ImeayE7CT9cuY9f7XUYwLBZCOIoZaxNRj/P5vpeqeKLjjy5SWgorZlFvq4j100X7
mU3n89Us8Enlww3Y4Z+Jw16Y/qztLhDuX+hxr6MklBqGnB5GCfClSOe17w1koGNk
wax1h1vukdlXbiTS49U=
-----END CERTIFICATE-----
