-----BEGIN RSA PRIVATE KEY-----
MIICXQIBAAKBgQCssuXlIC2h8kzqj9/gFMusj6Fz7yzJWY4+Wu8ph1dA2qPiZmvK
nYTVptrl6W3KL2ZuIDU9RXXsL8IwALHd9yV2gfpA6jM0qQy7mnFRJSfxw+6TZw2I
hoe0D0f8ygwJrBSgBlDxh+NTse+PTMJbTYuwnRaqihnM4IqawfAU7ulCdQIDAQAB
AoGBAIAGf3dES4/q2CprTkQIJpVeRQp1HHaH9XM0Zmga9QwXCbckxnQGIhtg/pXC
XqmsSfsJ1W3+uFTHcuWzHii2twXTPy/M0BEvqeNc0kw1DQ5ZB/FsVickA0zOEEVn
Hh6XfMNWxQw9KGkraMGqf+b7U0CKI9iwrsZRNvnvWIyiEyoBAkEA3s6RskhdPZPh
iJ7KiOrk/zqd2WC5xKxcU2QalNjc1yAJHmPIYlSWqmlu+podAnW1fBYi8NYPmoeX
Ab/pNyjA5QJBAMZtTUYqgRcbK49Izc++Zuc8Zemy8ZtmUch3qBS5EVFq/A5z8+UU
dYQ0Z8vuZoh9/wVTeTNMIhr8rMvaB5QBslECQHHnaNSb6g7w6vvNMf2NGETi0o+u
w0moVArNwkkWFNBlsEO4/1hFpkC4ZeP3pZz8UCt/pZ050gBOEQTz92Ybj4ECQAef
r3Zgr7EJlDTfITk4IZAE3A2MmIfV+JJxNn4FVksAh0qu3dIRZSp9MPe+4yWfYar8
uA1mgXD0AFecuunO3uECQQCcBS9FE9KxOBBvJcxwYKl6/m7AP6D6PZTtKUTSmYIC
Axi3uCFl6ZrTUI24PZjjGarUHrHVOOT24N3mefya+/9X
-----END RSA PRIVATE KEY-----
Certificate:
    Data:
        Version: 1 (0x0)
        Serial Number: 1 (0x1)
        Signature Algorithm: md5WithRSAEncryption
        Issuer: O=Cavisson Systems, Inc./emailAddress=info@cavisson.com, L=Fremont, ST=California, C=US, CN=Root
        Validity
            Not Before: Aug 11 14:28:07 2009 GMT
            Not After : Aug  9 14:28:07 2019 GMT
        Subject: C=US, ST=California, O=Cavisson Systems, Inc., CN=Client
        Subject Public Key Info:
            Public Key Algorithm: rsaEncryption
            RSA Public Key: (1024 bit)
                Modulus (1024 bit):
                    00:ac:b2:e5:e5:20:2d:a1:f2:4c:ea:8f:df:e0:14:
                    cb:ac:8f:a1:73:ef:2c:c9:59:8e:3e:5a:ef:29:87:
                    57:40:da:a3:e2:66:6b:ca:9d:84:d5:a6:da:e5:e9:
                    6d:ca:2f:66:6e:20:35:3d:45:75:ec:2f:c2:30:00:
                    b1:dd:f7:25:76:81:fa:40:ea:33:34:a9:0c:bb:9a:
                    71:51:25:27:f1:c3:ee:93:67:0d:88:86:87:b4:0f:
                    47:fc:ca:0c:09:ac:14:a0:06:50:f1:87:e3:53:b1:
                    ef:8f:4c:c2:5b:4d:8b:b0:9d:16:aa:8a:19:cc:e0:
                    8a:9a:c1:f0:14:ee:e9:42:75
                Exponent: 65537 (0x10001)
    Signature Algorithm: md5WithRSAEncryption
        35:be:73:e4:c2:db:44:dd:ff:12:5d:17:fb:7e:6b:f5:4b:d2:
        05:05:3f:e5:3f:02:8a:40:c3:8c:84:fb:26:f1:66:80:d0:5d:
        e8:4f:aa:11:8d:df:12:78:66:f3:d3:21:e8:6b:9d:c0:fc:e4:
        6f:36:2d:45:66:b8:0e:55:58:ac:f6:21:5a:61:cb:15:01:8c:
        03:8a:4a:0f:9d:b5:21:3b:44:e4:1b:48:6a:e3:b5:a3:64:5e:
        49:ae:0d:4e:bc:c1:9f:41:69:14:c6:2f:27:37:35:d9:ab:34:
        80:3d:65:98:fb:4c:95:5d:27:a2:6f:e0:43:a8:b6:af:0b:cb:
        92:c6
-----BEGIN CERTIFICATE-----
MIICSjCCAbMCAQEwDQYJKoZIhvcNAQEEBQAwgYYxHzAdBgNVBAoTFkNhdmlzc29u
IFN5c3RlbXMsIEluYy4xIDAeBgkqhkiG9w0BCQEWEWluZm9AY2F2aXNzb24uY29t
MRAwDgYDVQQHEwdGcmVtb250MRMwEQYDVQQIEwpDYWxpZm9ybmlhMQswCQYDVQQG
EwJVUzENMAsGA1UEAxMEUm9vdDAeFw0wOTA4MTExNDI4MDdaFw0xOTA4MDkxNDI4
MDdaMFQxCzAJBgNVBAYTAlVTMRMwEQYDVQQIEwpDYWxpZm9ybmlhMR8wHQYDVQQK
ExZDYXZpc3NvbiBTeXN0ZW1zLCBJbmMuMQ8wDQYDVQQDEwZDbGllbnQwgZ8wDQYJ
KoZIhvcNAQEBBQADgY0AMIGJAoGBAKyy5eUgLaHyTOqP3+AUy6yPoXPvLMlZjj5a
7ymHV0Dao+Jma8qdhNWm2uXpbcovZm4gNT1FdewvwjAAsd33JXaB+kDqMzSpDLua
cVElJ/HD7pNnDYiGh7QPR/zKDAmsFKAGUPGH41Ox749MwltNi7CdFqqKGczgiprB
8BTu6UJ1AgMBAAEwDQYJKoZIhvcNAQEEBQADgYEANb5z5MLbRN3/El0X+35r9UvS
BQU/5T8CikDDjIT7JvFmgNBd6E+qEY3fEnhm89Mh6GudwPzkbzYtRWa4DlVYrPYh
WmHLFQGMA4pKD521ITtE5BtIauO1o2ReSa4NTrzBn0FpFMYvJzc12as0gD1lmPtM
lV0nom/gQ6i2rwvLksY=
-----END CERTIFICATE-----
