-----BEGIN RSA PRIVATE KEY-----
MIICXAIBAAKBgQCjAv1klW9BPLrkDWfL5HmVcVyznP4Hiz23gT7KeJyZsQSBAFTq
wdj8gO4WKdRpE6n0NVVSecXMKUVbSgkpVzFkJxmp2tgItw8rb6LBwYTuLYpCMgaw
aJbUYF5HUuBCM3vqA0YaUAccl+UwBhfpbfuxmxeDlK8KsrOtBLG5Q4wokQIDAQAB
AoGAB1cQH+JWsyJP7ArqfJTaIK+NFA1ipuZPLh8ku6s4qfb9k+125Wc7JQuNLPRP
OzgGdBeesusGzA2jsNuhk/n4IE71sNmcBY4j5/26+ZjiSxq2Mxirzk+mgiQB79p0
sZZogVXgYd/eNU0uwhLi64piT7cJw/P2zgX2jklHf0swTgECQQDTy8vIIW0ZtDZ9
ZbPcaQdO7+V1BadnoRavp1iu0avTuGk3SQfZeueZfNzzO7OBeq0j2SmmrCa7P13l
dyVLi5NhAkEAxQioQwtZPJa3YpVAOOtSnOgbbTPJHbCegI+7rzNHbCkyV2uzRr26
COYtSAnkF4uBcU2Iib+/NGO32AaQnNzTMQJBANIBdot3kW12Qr1uFbzMK6H6v0Oc
mpRnp03+mjGl10G0zicyc+USOAj6RT+tB92wHXO5RdJtSm5Kc7kuvb09paECQEYU
lDR0fuLsAIIR7+vO121zqP2oY6opvdagSPNB2+9+n6c0aWmJ5fdwVz6+NeCiAAJa
v2uvRcTOiv9NJnaEnKECQFwtF9BhrvAZE+I3F3mDn0mXSLaDIXy81jrI4JW4axLL
r8bF2fkISU97L9YHTdvOljgwI2iAYJ2LkYunvbIZ3JI=
-----END RSA PRIVATE KEY-----
Certificate:
    Data:
        Version: 1 (0x0)
        Serial Number: 1 (0x1)
        Signature Algorithm: md5WithRSAEncryption
        Issuer: O=Cavisson Systems, Inc./emailAddress=info@cavisson.com, L=Fremont, ST=California, C=US, CN=Root
        Validity
            Not Before: Aug 12 05:58:10 2009 GMT
            Not After : Aug 10 05:58:10 2019 GMT
        Subject: C=US, ST=California, O=Cavisson Systems, Inc., CN=Client
        Subject Public Key Info:
            Public Key Algorithm: rsaEncryption
            RSA Public Key: (1024 bit)
                Modulus (1024 bit):
                    00:a3:02:fd:64:95:6f:41:3c:ba:e4:0d:67:cb:e4:
                    79:95:71:5c:b3:9c:fe:07:8b:3d:b7:81:3e:ca:78:
                    9c:99:b1:04:81:00:54:ea:c1:d8:fc:80:ee:16:29:
                    d4:69:13:a9:f4:35:55:52:79:c5:cc:29:45:5b:4a:
                    09:29:57:31:64:27:19:a9:da:d8:08:b7:0f:2b:6f:
                    a2:c1:c1:84:ee:2d:8a:42:32:06:b0:68:96:d4:60:
                    5e:47:52:e0:42:33:7b:ea:03:46:1a:50:07:1c:97:
                    e5:30:06:17:e9:6d:fb:b1:9b:17:83:94:af:0a:b2:
                    b3:ad:04:b1:b9:43:8c:28:91
                Exponent: 65537 (0x10001)
    Signature Algorithm: md5WithRSAEncryption
        3e:93:52:d6:a1:90:d2:45:4d:5f:71:cd:c2:30:b3:6e:80:47:
        a4:a6:d3:f2:74:bd:ca:d1:46:39:da:c4:0c:fa:22:fd:cd:21:
        2c:d5:51:e4:83:f1:17:dc:45:94:3d:0a:dd:e4:71:22:e9:29:
        98:f8:c1:81:1d:3e:b0:df:86:2e:76:f9:25:6c:16:60:d6:d7:
        e7:d5:d2:f7:4c:8c:af:0c:bd:2b:c0:7a:11:a8:68:92:1b:7b:
        16:49:a7:1a:fa:2d:cd:24:88:7b:29:40:99:6c:5e:bf:90:9d:
        3c:90:ec:30:5e:95:48:ce:cc:d4:24:f4:2e:5b:bf:81:b6:ee:
        21:f2
-----BEGIN CERTIFICATE-----
MIICSjCCAbMCAQEwDQYJKoZIhvcNAQEEBQAwgYYxHzAdBgNVBAoTFkNhdmlzc29u
IFN5c3RlbXMsIEluYy4xIDAeBgkqhkiG9w0BCQEWEWluZm9AY2F2aXNzb24uY29t
MRAwDgYDVQQHEwdGcmVtb250MRMwEQYDVQQIEwpDYWxpZm9ybmlhMQswCQYDVQQG
EwJVUzENMAsGA1UEAxMEUm9vdDAeFw0wOTA4MTIwNTU4MTBaFw0xOTA4MTAwNTU4
MTBaMFQxCzAJBgNVBAYTAlVTMRMwEQYDVQQIEwpDYWxpZm9ybmlhMR8wHQYDVQQK
ExZDYXZpc3NvbiBTeXN0ZW1zLCBJbmMuMQ8wDQYDVQQDEwZDbGllbnQwgZ8wDQYJ
KoZIhvcNAQEBBQADgY0AMIGJAoGBAKMC/WSVb0E8uuQNZ8vkeZVxXLOc/geLPbeB
Psp4nJmxBIEAVOrB2PyA7hYp1GkTqfQ1VVJ5xcwpRVtKCSlXMWQnGana2Ai3Dytv
osHBhO4tikIyBrBoltRgXkdS4EIze+oDRhpQBxyX5TAGF+lt+7GbF4OUrwqys60E
sblDjCiRAgMBAAEwDQYJKoZIhvcNAQEEBQADgYEAPpNS1qGQ0kVNX3HNwjCzboBH
pKbT8nS9ytFGOdrEDPoi/c0hLNVR5IPxF9xFlD0K3eRxIukpmPjBgR0+sN+GLnb5
JWwWYNbX59XS90yMrwy9K8B6Eahokht7FkmnGvotzSSIeylAmWxev5CdPJDsMF6V
SM7M1CT0Llu/gbbuIfI=
-----END CERTIFICATE-----
