Certificate:
    Data:
        Version: 1 (0x0)
        Serial Number: 1 (0x1)
        Signature Algorithm: md5WithRSAEncryption
        Issuer: O=Cavisson Systems, Inc./emailAddress=info@cavisson.com, L=Fremont, ST=California, C=US, CN=Root
        Validity
            Not Before: Aug 11 14:27:43 2009 GMT
            Not After : Aug  9 14:27:43 2019 GMT
        Subject: C=US, ST=California, O=Cavisson Systems, Inc., CN=Client
        Subject Public Key Info:
            Public Key Algorithm: rsaEncryption
            RSA Public Key: (1024 bit)
                Modulus (1024 bit):
                    00:a0:ca:d4:0b:12:79:d4:db:36:02:1c:a0:44:61:
                    69:6a:3b:3f:4c:f6:34:01:2c:02:18:ad:47:da:8b:
                    27:15:47:29:65:0b:dc:f2:1b:07:97:ae:09:51:65:
                    d9:16:86:fe:cb:37:88:5e:a0:81:8c:15:58:bd:36:
                    13:9c:e6:9b:00:08:4d:bd:78:d5:5d:44:39:59:64:
                    c1:35:ec:2b:21:28:21:af:be:96:0c:96:80:57:d2:
                    0b:33:aa:69:af:f9:40:f7:46:0b:17:dd:bc:cf:08:
                    a7:bf:65:9d:6b:91:6e:6e:94:49:1e:45:c2:b2:a4:
                    1b:16:1f:cf:c0:65:27:25:a9
                Exponent: 65537 (0x10001)
    Signature Algorithm: md5WithRSAEncryption
        a1:6e:e2:3a:93:b1:e7:d1:1d:e7:be:30:06:21:a4:95:47:97:
        90:b2:73:35:ee:2d:fe:f0:21:d6:a7:e7:4f:74:d4:c9:f4:b5:
        12:fe:58:02:51:f4:1b:03:8f:b8:a1:77:0e:d7:d8:a0:99:79:
        89:ef:77:b5:8f:a7:8b:88:1a:e4:8c:e0:76:ac:27:e3:88:e4:
        5f:21:2f:3a:3a:7d:01:8d:63:25:42:0f:8a:1c:c4:ab:d5:6e:
        8a:fe:d4:cb:06:2e:10:56:3a:0f:cb:80:e1:e1:07:bf:f6:59:
        16:9a:7a:45:59:3d:20:7d:b6:c0:cf:bf:27:05:d3:20:d2:69:
        19:85
-----BEGIN CERTIFICATE-----
MIICSjCCAbMCAQEwDQYJKoZIhvcNAQEEBQAwgYYxHzAdBgNVBAoTFkNhdmlzc29u
IFN5c3RlbXMsIEluYy4xIDAeBgkqhkiG9w0BCQEWEWluZm9AY2F2aXNzb24uY29t
MRAwDgYDVQQHEwdGcmVtb250MRMwEQYDVQQIEwpDYWxpZm9ybmlhMQswCQYDVQQG
EwJVUzENMAsGA1UEAxMEUm9vdDAeFw0wOTA4MTExNDI3NDNaFw0xOTA4MDkxNDI3
NDNaMFQxCzAJBgNVBAYTAlVTMRMwEQYDVQQIEwpDYWxpZm9ybmlhMR8wHQYDVQQK
ExZDYXZpc3NvbiBTeXN0ZW1zLCBJbmMuMQ8wDQYDVQQDEwZDbGllbnQwgZ8wDQYJ
KoZIhvcNAQEBBQADgY0AMIGJAoGBAKDK1AsSedTbNgIcoERhaWo7P0z2NAEsAhit
R9qLJxVHKWUL3PIbB5euCVFl2RaG/ss3iF6ggYwVWL02E5zmmwAITb141V1EOVlk
wTXsKyEoIa++lgyWgFfSCzOqaa/5QPdGCxfdvM8Ip79lnWuRbm6USR5FwrKkGxYf
z8BlJyWpAgMBAAEwDQYJKoZIhvcNAQEEBQADgYEAoW7iOpOx59Ed574wBiGklUeX
kLJzNe4t/vAh1qfnT3TUyfS1Ev5YAlH0GwOPuKF3DtfYoJl5ie93tY+ni4ga5Izg
dqwn44jkXyEvOjp9AY1jJUIPihzEq9Vuiv7UywYuEFY6D8uA4eEHv/ZZFpp6RVk9
IH22wM+/JwXTINJpGYU=
-----END CERTIFICATE-----
