-----BEGIN RSA PRIVATE KEY-----
MIICXQIBAAKBgQDYo31+OVq/LDXiH0RUM90nvcedH5Ta584cabu37Nho/4bn42os
1UwlIvfIm0naJ+Hxm6v1fL5bL5/RMxBWxOU5Y+wrCHW1SbAksKEXBLgjvxamMCvJ
xoPRkO5HaJ4I3B7f8Hy/wqUE0HEPZq5GGiYUMistpU+AGCkOOTtEYNOIHwIDAQAB
AoGAUWCIgWO2DN3kl747Ao5A4u7NDt6QIfK1X8Lv+tUDLd3epTit541v/vs1rKt4
gHQ+0W0ymRJ0xvgKxqCx4IYxvD4Zn+ggKHVvOCkCaB8/uE5AhZg8mp4lrf9IsJji
6ZNWIQ7SbPah4H9bVekxOHCmZzfLDfrNOBwvRBcIG9r8sPECQQD0iW/8lcFHxvRF
+CX8BBQxuq+SuN5U6IAoKfMGLAgNqabfcmr1XroI4QYzzqAMZTI3SNWRQDcURxjB
kxoltl3rAkEA4stCoTkbcb50MbsAyBDC2ahgQoopqbdPcbk+4lCzekrVOi8KpZAX
erdvP3xyb1lE/wp3IYYyj0v2W858buUNnQJACSBwC49TTWiBiXL/h+5nCowbLXC0
65pZ3iXiqiJOkqP4VHKix1Gnw9kSMDDQDGZif2m6ftdUtu8IX4EsAqhRzQJBAOHU
+t0ly4FA390hVE7j+dLZCjlX8NKx2Wbpyod7SqzM1XShoR1p1Sd6f0mddyoPn1fD
KQt14OS2BHQ4scmPRjUCQQCkBn8y+A//P7r+lyX77NYtqlyJLfmSHbNCsNvcGBWm
YumzO3Cb7U4aapi8P4RSseYToLYfh3aLuKYcOWSovazj
-----END RSA PRIVATE KEY-----
Certificate:
    Data:
        Version: 1 (0x0)
        Serial Number: 2 (0x2)
        Signature Algorithm: md5WithRSAEncryption
        Issuer: O=Cavisson Systems, Inc./emailAddress=info@cavisson.com, L=Fremont, ST=California, C=US, CN=Root
        Validity
            Not Before: Aug 12 05:58:10 2009 GMT
            Not After : Aug 10 05:58:10 2019 GMT
        Subject: C=US, ST=California, O=Cavisson Systems, Inc., CN=Client_revoke
        Subject Public Key Info:
            Public Key Algorithm: rsaEncryption
            RSA Public Key: (1024 bit)
                Modulus (1024 bit):
                    00:d8:a3:7d:7e:39:5a:bf:2c:35:e2:1f:44:54:33:
                    dd:27:bd:c7:9d:1f:94:da:e7:ce:1c:69:bb:b7:ec:
                    d8:68:ff:86:e7:e3:6a:2c:d5:4c:25:22:f7:c8:9b:
                    49:da:27:e1:f1:9b:ab:f5:7c:be:5b:2f:9f:d1:33:
                    10:56:c4:e5:39:63:ec:2b:08:75:b5:49:b0:24:b0:
                    a1:17:04:b8:23:bf:16:a6:30:2b:c9:c6:83:d1:90:
                    ee:47:68:9e:08:dc:1e:df:f0:7c:bf:c2:a5:04:d0:
                    71:0f:66:ae:46:1a:26:14:32:2b:2d:a5:4f:80:18:
                    29:0e:39:3b:44:60:d3:88:1f
                Exponent: 65537 (0x10001)
    Signature Algorithm: md5WithRSAEncryption
        63:3c:fe:4a:a4:9f:d5:ea:2b:42:fe:b6:87:6b:a9:08:c8:32:
        59:55:8d:c2:62:93:9c:df:4d:91:55:6a:32:ee:77:6b:91:42:
        14:1b:2b:24:9c:40:47:65:ec:c0:cd:99:de:f3:31:14:aa:a9:
        28:f8:0c:dc:23:e2:6a:27:b5:72:7a:ff:ec:25:30:29:2b:8c:
        db:a2:92:c7:19:cb:bc:90:b9:59:4a:a3:ba:17:0e:22:7c:9b:
        34:6a:b7:92:99:d5:66:62:4a:29:c8:c7:c2:43:85:ae:34:38:
        c9:dc:e5:37:7f:ac:a7:10:f9:71:d8:eb:7d:8e:9f:96:55:3b:
        03:30
-----BEGIN CERTIFICATE-----
MIICUTCCAboCAQIwDQYJKoZIhvcNAQEEBQAwgYYxHzAdBgNVBAoTFkNhdmlzc29u
IFN5c3RlbXMsIEluYy4xIDAeBgkqhkiG9w0BCQEWEWluZm9AY2F2aXNzb24uY29t
MRAwDgYDVQQHEwdGcmVtb250MRMwEQYDVQQIEwpDYWxpZm9ybmlhMQswCQYDVQQG
EwJVUzENMAsGA1UEAxMEUm9vdDAeFw0wOTA4MTIwNTU4MTBaFw0xOTA4MTAwNTU4
MTBaMFsxCzAJBgNVBAYTAlVTMRMwEQYDVQQIEwpDYWxpZm9ybmlhMR8wHQYDVQQK
ExZDYXZpc3NvbiBTeXN0ZW1zLCBJbmMuMRYwFAYDVQQDFA1DbGllbnRfcmV2b2tl
MIGfMA0GCSqGSIb3DQEBAQUAA4GNADCBiQKBgQDYo31+OVq/LDXiH0RUM90nvced
H5Ta584cabu37Nho/4bn42os1UwlIvfIm0naJ+Hxm6v1fL5bL5/RMxBWxOU5Y+wr
CHW1SbAksKEXBLgjvxamMCvJxoPRkO5HaJ4I3B7f8Hy/wqUE0HEPZq5GGiYUMist
pU+AGCkOOTtEYNOIHwIDAQABMA0GCSqGSIb3DQEBBAUAA4GBAGM8/kqkn9XqK0L+
todrqQjIMllVjcJik5zfTZFVajLud2uRQhQbKyScQEdl7MDNmd7zMRSqqSj4DNwj
4montXJ6/+wlMCkrjNuikscZy7yQuVlKo7oXDiJ8mzRqt5KZ1WZiSinIx8JDha40
OMnc5Td/rKcQ+XHY632On5ZVOwMw
-----END CERTIFICATE-----
