-----BEGIN RSA PRIVATE KEY-----
MIICWwIBAAKBgQC1p649sDH/lS1LZp362vb+BWvtitfs++6GJn28+2MtL0xyq1z9
bifdCLXlsyLctzuwcC9TufGQFvWxPEWaT2LZjj51WkZmwX1mLQmevyMQ9LPYwVAd
Wq8tafbj05iRC2UYB4hpI/Bh+2AykJ7O3MHQOqcwjtCTJO4TqWfH0+KIGwIDAQAB
AoGANalzL4X9PyMyXjPSN2i3zhKL74A0iS1jKP315v3cLlzqmHVG4xbHb+RC17gz
dEAswdJiKLmlQouFyPWlGhCZgmumdK1YnGW9LQv7gi5Be+Pg4hJdQdEFT47Dk7V7
6+z4mEsjuVZfxMnsjTzPwIDblkufRiXW2zXmpgOzAQvoIgECQQDfReWHP0p/bTSf
lfUgkZdY0XEF3HuAgicbOun6zx4IKOF+QgA2baVAK09TYJtHKXK8fSCP7pO3kO28
cOzbqaOpAkEA0EgbnzqazIPiujEK0Ab5U5HuCVGDnteK6IEgccHQaLqplMCjZjJn
jUczFsbpUKzK/aripujBDo5JVSYvMGDoIwJAKh85qkZae6fSobjcwgQ1lWAN/pkW
A6yKTCzVL6gbdlagE/3HpH0TDAQftw8mvEophz3kAsNzwtHoyABV7ysV4QJAHyBH
kHovnBSxk2W02fXQ2N5cFmRqKRjJF4oEkTuHq78JjMNlJ+asdv6G8gZz46yPAW3C
RXNPNp+o8eKs9qvkxQJAPRyEJ07/1nVms9Cj8CxvK9BoUilfbyKQgVtoOQbjdpDL
AxVcbHHVdozAM68WelGNOUSjnP5zQU3JQuGaKfOVag==
-----END RSA PRIVATE KEY-----
Certificate:
    Data:
        Version: 1 (0x0)
        Serial Number: 1 (0x1)
        Signature Algorithm: md5WithRSAEncryption
        Issuer: O=Cavisson Systems, Inc./emailAddress=info@cavisson.com, L=Fremont, ST=California, C=US, CN=Root
        Validity
            Not Before: Aug 11 14:28:47 2009 GMT
            Not After : Aug  9 14:28:47 2019 GMT
        Subject: C=US, ST=California, O=Cavisson Systems, Inc., CN=Client
        Subject Public Key Info:
            Public Key Algorithm: rsaEncryption
            RSA Public Key: (1024 bit)
                Modulus (1024 bit):
                    00:b5:a7:ae:3d:b0:31:ff:95:2d:4b:66:9d:fa:da:
                    f6:fe:05:6b:ed:8a:d7:ec:fb:ee:86:26:7d:bc:fb:
                    63:2d:2f:4c:72:ab:5c:fd:6e:27:dd:08:b5:e5:b3:
                    22:dc:b7:3b:b0:70:2f:53:b9:f1:90:16:f5:b1:3c:
                    45:9a:4f:62:d9:8e:3e:75:5a:46:66:c1:7d:66:2d:
                    09:9e:bf:23:10:f4:b3:d8:c1:50:1d:5a:af:2d:69:
                    f6:e3:d3:98:91:0b:65:18:07:88:69:23:f0:61:fb:
                    60:32:90:9e:ce:dc:c1:d0:3a:a7:30:8e:d0:93:24:
                    ee:13:a9:67:c7:d3:e2:88:1b
                Exponent: 65537 (0x10001)
    Signature Algorithm: md5WithRSAEncryption
        19:d8:6e:72:48:29:62:fb:9c:c1:24:8e:b2:a1:a3:11:18:1e:
        ae:4d:d2:6c:10:2a:4f:28:e5:fd:b5:3d:d4:9b:10:dc:50:e3:
        e1:9d:db:14:75:00:b1:87:18:1c:ae:fc:60:54:1f:92:0d:2c:
        db:c2:6b:3b:ef:e1:52:31:13:60:7c:1f:37:79:2b:c9:97:ff:
        8f:ab:ff:85:e2:5b:b4:5c:a8:78:bb:b9:48:6d:11:90:f2:37:
        bd:2f:68:a2:68:d6:b8:ab:8f:0e:de:f6:4f:5f:3f:a1:e5:b4:
        fa:2e:78:57:0c:e4:3f:ba:db:83:8d:0e:7d:c5:a0:8a:5f:90:
        d8:36
-----BEGIN CERTIFICATE-----
MIICSjCCAbMCAQEwDQYJKoZIhvcNAQEEBQAwgYYxHzAdBgNVBAoTFkNhdmlzc29u
IFN5c3RlbXMsIEluYy4xIDAeBgkqhkiG9w0BCQEWEWluZm9AY2F2aXNzb24uY29t
MRAwDgYDVQQHEwdGcmVtb250MRMwEQYDVQQIEwpDYWxpZm9ybmlhMQswCQYDVQQG
EwJVUzENMAsGA1UEAxMEUm9vdDAeFw0wOTA4MTExNDI4NDdaFw0xOTA4MDkxNDI4
NDdaMFQxCzAJBgNVBAYTAlVTMRMwEQYDVQQIEwpDYWxpZm9ybmlhMR8wHQYDVQQK
ExZDYXZpc3NvbiBTeXN0ZW1zLCBJbmMuMQ8wDQYDVQQDEwZDbGllbnQwgZ8wDQYJ
KoZIhvcNAQEBBQADgY0AMIGJAoGBALWnrj2wMf+VLUtmnfra9v4Fa+2K1+z77oYm
fbz7Yy0vTHKrXP1uJ90IteWzIty3O7BwL1O58ZAW9bE8RZpPYtmOPnVaRmbBfWYt
CZ6/IxD0s9jBUB1ary1p9uPTmJELZRgHiGkj8GH7YDKQns7cwdA6pzCO0JMk7hOp
Z8fT4ogbAgMBAAEwDQYJKoZIhvcNAQEEBQADgYEAGdhuckgpYvucwSSOsqGjERge
rk3SbBAqTyjl/bU91JsQ3FDj4Z3bFHUAsYcYHK78YFQfkg0s28JrO+/hUjETYHwf
N3kryZf/j6v/heJbtFyoeLu5SG0RkPI3vS9oomjWuKuPDt72T18/oeW0+i54Vwzk
P7rbg40OfcWgil+Q2DY=
-----END CERTIFICATE-----
