-----BEGIN RSA PRIVATE KEY-----
MIICXAIBAAKBgQDKQo0/+cI6DIjtmsc/fTIvqrRaMTsvmwZNsPxj4p5V/WXEdeuG
wqIJkz+weED25RrAcj8SDJHEVvFDIXNs7KfB/X9B2MoVEWoZZEtZOTgwiWjEBD4c
B0it3I72BUHzhMrrSMlS8c6HTEGbByLP0N7KOtSymteX2+nWQZyV1GlJCwIDAQAB
AoGBAI63zzupXOfhGG2wnY+rI9KGvaQ2wPCijxwbGrzQl7FNkJXEL2FzzSq8gGBh
OlX865eIBgESZXkJcExSOkRN6UCyk1UBdcGIxQefkT14wmg3u7Kbyys14cHKeV61
CdNI3jteR51XmYpVDLz2P3IfnI4Utit+X8PbN2BzaHWFpvJBAkEA+xbBFBCk+iBQ
9biURW1VrUPS9n/cURVNHyj+JUMbPWDpWiXwSgEFU3CVS9JG1zZ4acGihz0Zuy3L
2DqeW/aiswJBAM43TXrcXRPz15jLyGryYCEZb6wrYItqDUIFFZP/EIIhSYqIkmD+
i29a9ve4NV3uIN9sCK17b24m82763J75jEkCQFVkF6XLQ1ANTXtDmqlB1bFnL4fF
VBf/NosyVbw2Zj0piDKwVFfWoQkPcLaofI8UZz8QK0Xy8Z1GpdyTkueTqSECQGT9
8JQbF/qNkSjjpGO8EBglvOs00zNz3MpYcxjn8c3JP5r5B7c48lC22/y12m0GElNZ
NWbA7PGlYdMYSLQSwwECQB7iB9EXk/G7gQoyMlfUGvrhDdhsUvoxEW/fvsIZkKKI
H+DImPupiq/kpx+ClIYhjAr/n96Z62N28YgH4D6mbuc=
-----END RSA PRIVATE KEY-----
Certificate:
    Data:
        Version: 1 (0x0)
        Serial Number: 2 (0x2)
        Signature Algorithm: md5WithRSAEncryption
        Issuer: O=Cavisson Systems, Inc./emailAddress=info@cavisson.com, L=Fremont, ST=California, C=US, CN=Root
        Validity
            Not Before: Aug 11 14:30:47 2009 GMT
            Not After : Aug  9 14:30:47 2019 GMT
        Subject: C=US, ST=California, O=Cavisson Systems, Inc., CN=Client_revoke
        Subject Public Key Info:
            Public Key Algorithm: rsaEncryption
            RSA Public Key: (1024 bit)
                Modulus (1024 bit):
                    00:ca:42:8d:3f:f9:c2:3a:0c:88:ed:9a:c7:3f:7d:
                    32:2f:aa:b4:5a:31:3b:2f:9b:06:4d:b0:fc:63:e2:
                    9e:55:fd:65:c4:75:eb:86:c2:a2:09:93:3f:b0:78:
                    40:f6:e5:1a:c0:72:3f:12:0c:91:c4:56:f1:43:21:
                    73:6c:ec:a7:c1:fd:7f:41:d8:ca:15:11:6a:19:64:
                    4b:59:39:38:30:89:68:c4:04:3e:1c:07:48:ad:dc:
                    8e:f6:05:41:f3:84:ca:eb:48:c9:52:f1:ce:87:4c:
                    41:9b:07:22:cf:d0:de:ca:3a:d4:b2:9a:d7:97:db:
                    e9:d6:41:9c:95:d4:69:49:0b
                Exponent: 65537 (0x10001)
    Signature Algorithm: md5WithRSAEncryption
        15:90:9b:0f:fc:cd:2d:61:a5:d0:81:02:c6:77:04:a2:6d:f0:
        35:cc:37:da:65:65:c2:a3:76:b4:1e:34:fe:35:8e:ac:7e:0f:
        77:57:b3:83:6e:8f:08:1a:fd:a9:9d:27:b9:a7:18:51:1f:ea:
        4e:20:18:66:b3:4e:fb:8c:59:aa:c7:84:d3:59:ec:91:e0:55:
        39:a6:ad:9c:3c:fc:aa:4b:90:36:2c:4b:4f:87:04:5f:6d:2a:
        57:31:90:81:03:51:ec:ff:5c:44:5c:d8:80:9e:53:fc:fe:e1:
        ff:f5:af:6d:94:be:4e:72:c5:50:02:c0:ea:17:8a:de:cf:e7:
        c4:fc
-----BEGIN CERTIFICATE-----
MIICUTCCAboCAQIwDQYJKoZIhvcNAQEEBQAwgYYxHzAdBgNVBAoTFkNhdmlzc29u
IFN5c3RlbXMsIEluYy4xIDAeBgkqhkiG9w0BCQEWEWluZm9AY2F2aXNzb24uY29t
MRAwDgYDVQQHEwdGcmVtb250MRMwEQYDVQQIEwpDYWxpZm9ybmlhMQswCQYDVQQG
EwJVUzENMAsGA1UEAxMEUm9vdDAeFw0wOTA4MTExNDMwNDdaFw0xOTA4MDkxNDMw
NDdaMFsxCzAJBgNVBAYTAlVTMRMwEQYDVQQIEwpDYWxpZm9ybmlhMR8wHQYDVQQK
ExZDYXZpc3NvbiBTeXN0ZW1zLCBJbmMuMRYwFAYDVQQDFA1DbGllbnRfcmV2b2tl
MIGfMA0GCSqGSIb3DQEBAQUAA4GNADCBiQKBgQDKQo0/+cI6DIjtmsc/fTIvqrRa
MTsvmwZNsPxj4p5V/WXEdeuGwqIJkz+weED25RrAcj8SDJHEVvFDIXNs7KfB/X9B
2MoVEWoZZEtZOTgwiWjEBD4cB0it3I72BUHzhMrrSMlS8c6HTEGbByLP0N7KOtSy
mteX2+nWQZyV1GlJCwIDAQABMA0GCSqGSIb3DQEBBAUAA4GBABWQmw/8zS1hpdCB
AsZ3BKJt8DXMN9plZcKjdrQeNP41jqx+D3dXs4Nujwga/amdJ7mnGFEf6k4gGGaz
TvuMWarHhNNZ7JHgVTmmrZw8/KpLkDYsS0+HBF9tKlcxkIEDUez/XERc2ICeU/z+
4f/1r22Uvk5yxVACwOoXit7P58T8
-----END CERTIFICATE-----
