-----BEGIN RSA PRIVATE KEY-----
MIICXQIBAAKBgQDacCZRh/nxOfwls7l5w6eAbXJdw1xzx7zMEoNVABqHIloYfSnR
wsJfOJX82aS4wctSbGB7qdwdqrBuQYo1HxbMXgMy/EDijfEvDuqEcdfOh59dSto7
k3Fq8P7rLdu1BxuFT10lOUztyGbUMIYpp+REqvR0pnnkamunY4sapFA1PwIDAQAB
AoGBAMyt46nn8PLxM2ycgIIxLCXx6AUlxt6SXT0XZ8phA3p2XNeviF0N0pXo7tnz
kh6xMHR2Kt4VZrTBuPpHHVrzW6a99KN0kAmBe+MpZK6RN06FdFqEh4fZbFB0079D
iqDf3A34U5q4TwlVCzmW9D2gLXbn+8z8m1pIFL/6HxvLViZpAkEA+UeKVKpt1OxE
maQ/LuX+h2dXVn+5w5GcNKlYlgyFoo6ei3E8uXzRcoiRNS0vR+NweDYDoCyskzRq
kPw4Gl0S9QJBAOBTwCDOHwoyLoy0IVxIa3fBMl57XR5iTqdfcrRy/9d848/u+vrT
da8wq+JOdTKfIzlF/12V/zobcbQxRXhjDuMCQH0h3ly12MBjgeQmQNlH9sb9pyfy
oct8Uo9U2vUngAWj1g5lX3g1IeZ+i3XIIs3Ra+nMI3HKOy8BxuTU10zUn+kCQC+/
A6y30nl8FtZR3KvkqiMSFuNvRHGcIPuU4DgyJew6o851IixS58CDDoKbimxc3MVq
9aB4tZsrjjb5Kb0m8FsCQQCsdro6bhZ3HoyMknNru0iK/XLYLuHcu0L+gn0nm3I/
mcdmNuTOI6yQGdcWmEwQD5i68frbwgkIsa1qC/kx0VOV
-----END RSA PRIVATE KEY-----
Certificate:
    Data:
        Version: 1 (0x0)
        Serial Number: 2 (0x2)
        Signature Algorithm: md5WithRSAEncryption
        Issuer: O=Cavisson Systems, Inc./emailAddress=info@cavisson.com, L=Fremont, ST=California, C=US, CN=Root
        Validity
            Not Before: Aug 11 14:28:47 2009 GMT
            Not After : Aug  9 14:28:47 2019 GMT
        Subject: C=US, ST=California, O=Cavisson Systems, Inc., CN=Client_revoke
        Subject Public Key Info:
            Public Key Algorithm: rsaEncryption
            RSA Public Key: (1024 bit)
                Modulus (1024 bit):
                    00:da:70:26:51:87:f9:f1:39:fc:25:b3:b9:79:c3:
                    a7:80:6d:72:5d:c3:5c:73:c7:bc:cc:12:83:55:00:
                    1a:87:22:5a:18:7d:29:d1:c2:c2:5f:38:95:fc:d9:
                    a4:b8:c1:cb:52:6c:60:7b:a9:dc:1d:aa:b0:6e:41:
                    8a:35:1f:16:cc:5e:03:32:fc:40:e2:8d:f1:2f:0e:
                    ea:84:71:d7:ce:87:9f:5d:4a:da:3b:93:71:6a:f0:
                    fe:eb:2d:db:b5:07:1b:85:4f:5d:25:39:4c:ed:c8:
                    66:d4:30:86:29:a7:e4:44:aa:f4:74:a6:79:e4:6a:
                    6b:a7:63:8b:1a:a4:50:35:3f
                Exponent: 65537 (0x10001)
    Signature Algorithm: md5WithRSAEncryption
        8a:82:84:8c:97:fb:ba:8b:f6:bc:85:0e:77:e6:0f:00:23:e2:
        f8:64:04:0a:ee:f2:5d:53:90:b0:95:2e:09:e7:7d:e9:f8:ed:
        cb:e8:33:ca:89:c2:1f:66:ba:92:12:34:77:c7:b7:45:14:2a:
        fb:9c:8a:37:d2:40:27:e7:52:92:19:c5:8f:40:d3:ee:92:3e:
        c8:56:c3:d2:11:a9:8e:aa:1e:7c:91:98:25:00:07:93:e4:8e:
        c0:71:72:18:f8:01:88:5f:36:cc:af:01:a6:f7:a8:8f:c0:89:
        31:82:43:5d:0e:bd:60:25:0c:38:75:54:3d:29:ca:26:8e:eb:
        ad:86
-----BEGIN CERTIFICATE-----
MIICUTCCAboCAQIwDQYJKoZIhvcNAQEEBQAwgYYxHzAdBgNVBAoTFkNhdmlzc29u
IFN5c3RlbXMsIEluYy4xIDAeBgkqhkiG9w0BCQEWEWluZm9AY2F2aXNzb24uY29t
MRAwDgYDVQQHEwdGcmVtb250MRMwEQYDVQQIEwpDYWxpZm9ybmlhMQswCQYDVQQG
EwJVUzENMAsGA1UEAxMEUm9vdDAeFw0wOTA4MTExNDI4NDdaFw0xOTA4MDkxNDI4
NDdaMFsxCzAJBgNVBAYTAlVTMRMwEQYDVQQIEwpDYWxpZm9ybmlhMR8wHQYDVQQK
ExZDYXZpc3NvbiBTeXN0ZW1zLCBJbmMuMRYwFAYDVQQDFA1DbGllbnRfcmV2b2tl
MIGfMA0GCSqGSIb3DQEBAQUAA4GNADCBiQKBgQDacCZRh/nxOfwls7l5w6eAbXJd
w1xzx7zMEoNVABqHIloYfSnRwsJfOJX82aS4wctSbGB7qdwdqrBuQYo1HxbMXgMy
/EDijfEvDuqEcdfOh59dSto7k3Fq8P7rLdu1BxuFT10lOUztyGbUMIYpp+REqvR0
pnnkamunY4sapFA1PwIDAQABMA0GCSqGSIb3DQEBBAUAA4GBAIqChIyX+7qL9ryF
DnfmDwAj4vhkBAru8l1TkLCVLgnnfen47cvoM8qJwh9mupISNHfHt0UUKvucijfS
QCfnUpIZxY9A0+6SPshWw9IRqY6qHnyRmCUAB5PkjsBxchj4AYhfNsyvAab3qI/A
iTGCQ10OvWAlDDh1VD0pyiaO662G
-----END CERTIFICATE-----
