-----BEGIN RSA PRIVATE KEY-----
MIICXgIBAAKBgQDM4sZNg2XecPRdCvsCyKa/ROhIvgNSrwlxGJp1Ws80GG7e9eEO
RGQJ5Sr0JQYkzNrGM+/Fs2iFa8e6ole75Rdjcd1srTjo7ZPChAJwGyxgFSjkL2Q3
oC1TvDL/8xrAaeaCUzEgW2MaPcKmPWYJyFUTmPs9B7bl7jMkukFIfeRkaQIDAQAB
AoGBAIV8/uyDvrxF5cA1JkOzDYky0RCL1EhryIAKIqBxUOzFOn9DvaT5BCC6UdkN
wkn5ulRGhGLPuDqtdUzw9q5x3WD/h9xZh81V8mJAmKu3fkjBAGExK1phJruCCEEt
lfHh/4H0JIoRjbv/Q7otN9wdQ7IFbqT+UCfRKYT7RPxa/HitAkEA8GR0FXMQO2SH
qs3ELjjXxcDWPsJ+RadL6EzUCAvqfirqhqiC7J3w+Z1zxtecGEOhog6WudAoWnsu
M0hRwOzg6wJBANowK0CLRYuIkSWtolBbIGCSFmJf0AykU+GqhYDV8SJx6kM3fTsE
wG+GKjzYCF6rQcQsxLtDeLMGXV5afoFkGvsCQQDlWvJmhKG4CPJnxGqorxMvWg0P
VAGl8zg5KxQhmTzho5CfaaeAmjCP9+m+jXggrmZIeCLWpgPaUCyEQTu/FkKBAkB1
85ZeRSwqe4CkEtLth+Xf7vnE4rERNIDYPRwBAydhjJ2tCsFbd30kjS4mSE92BjT+
fYk5BweoGGe/S0KaZmijAkEAxsGRF3oxpmnGdCy5kcj3saJCLkWWQkP8T1aNjrFe
l1ETDLs8MxscC2fn9s07J5H8OJwRCHDEQMorJLa0sp9qAw==
-----END RSA PRIVATE KEY-----
Certificate:
    Data:
        Version: 1 (0x0)
        Serial Number: 1 (0x1)
        Signature Algorithm: md5WithRSAEncryption
        Issuer: O=Cavisson Systems, Inc./emailAddress=info@cavisson.com, L=Fremont, ST=California, C=US, CN=Root
        Validity
            Not Before: Aug 11 14:30:47 2009 GMT
            Not After : Aug  9 14:30:47 2019 GMT
        Subject: C=US, ST=California, O=Cavisson Systems, Inc., CN=Client
        Subject Public Key Info:
            Public Key Algorithm: rsaEncryption
            RSA Public Key: (1024 bit)
                Modulus (1024 bit):
                    00:cc:e2:c6:4d:83:65:de:70:f4:5d:0a:fb:02:c8:
                    a6:bf:44:e8:48:be:03:52:af:09:71:18:9a:75:5a:
                    cf:34:18:6e:de:f5:e1:0e:44:64:09:e5:2a:f4:25:
                    06:24:cc:da:c6:33:ef:c5:b3:68:85:6b:c7:ba:a2:
                    57:bb:e5:17:63:71:dd:6c:ad:38:e8:ed:93:c2:84:
                    02:70:1b:2c:60:15:28:e4:2f:64:37:a0:2d:53:bc:
                    32:ff:f3:1a:c0:69:e6:82:53:31:20:5b:63:1a:3d:
                    c2:a6:3d:66:09:c8:55:13:98:fb:3d:07:b6:e5:ee:
                    33:24:ba:41:48:7d:e4:64:69
                Exponent: 65537 (0x10001)
    Signature Algorithm: md5WithRSAEncryption
        8e:b8:c2:2a:5a:44:1c:a1:1b:9b:f3:70:16:d9:1d:8a:d0:82:
        47:ed:e0:c9:e1:ac:48:da:0a:73:a2:a9:40:b6:1c:52:06:5a:
        34:b1:f4:d0:bc:59:a0:0b:fa:ba:39:13:90:19:2c:b3:78:ba:
        35:2b:4c:ed:39:0c:b4:fa:49:ba:fa:14:20:3f:09:ff:2e:dc:
        00:06:5d:f8:c8:30:8d:0a:1c:bf:b0:c0:50:8b:f6:b7:40:b4:
        2b:c1:0f:80:41:b7:c4:79:88:dc:d8:bb:75:db:52:5b:46:21:
        50:c9:68:d3:5a:f6:59:a0:ad:6d:6f:a3:06:e8:4a:52:99:a5:
        ba:68
-----BEGIN CERTIFICATE-----
MIICSjCCAbMCAQEwDQYJKoZIhvcNAQEEBQAwgYYxHzAdBgNVBAoTFkNhdmlzc29u
IFN5c3RlbXMsIEluYy4xIDAeBgkqhkiG9w0BCQEWEWluZm9AY2F2aXNzb24uY29t
MRAwDgYDVQQHEwdGcmVtb250MRMwEQYDVQQIEwpDYWxpZm9ybmlhMQswCQYDVQQG
EwJVUzENMAsGA1UEAxMEUm9vdDAeFw0wOTA4MTExNDMwNDdaFw0xOTA4MDkxNDMw
NDdaMFQxCzAJBgNVBAYTAlVTMRMwEQYDVQQIEwpDYWxpZm9ybmlhMR8wHQYDVQQK
ExZDYXZpc3NvbiBTeXN0ZW1zLCBJbmMuMQ8wDQYDVQQDEwZDbGllbnQwgZ8wDQYJ
KoZIhvcNAQEBBQADgY0AMIGJAoGBAMzixk2DZd5w9F0K+wLIpr9E6Ei+A1KvCXEY
mnVazzQYbt714Q5EZAnlKvQlBiTM2sYz78WzaIVrx7qiV7vlF2Nx3WytOOjtk8KE
AnAbLGAVKOQvZDegLVO8Mv/zGsBp5oJTMSBbYxo9wqY9ZgnIVROY+z0HtuXuMyS6
QUh95GRpAgMBAAEwDQYJKoZIhvcNAQEEBQADgYEAjrjCKlpEHKEbm/NwFtkditCC
R+3gyeGsSNoKc6KpQLYcUgZaNLH00LxZoAv6ujkTkBkss3i6NStM7TkMtPpJuvoU
ID8J/y7cAAZd+MgwjQocv7DAUIv2t0C0K8EPgEG3xHmI3Ni7ddtSW0YhUMlo01r2
WaCtbW+jBuhKUpmlumg=
-----END CERTIFICATE-----
