-----BEGIN RSA PRIVATE KEY-----
MIICXAIBAAKBgQCz1eb/6zQ/biMpwCnOMAbfEm32eQHRZEI1hdNa8gTZOfy8Gu7Q
DvhXAhpsgsURTBxBJEykIZFLH5AxYap4qlcoMcgCgOyGippAXbYGkmEOTwAZEbzX
j99ChGHOF6SHAZaldZ31nfoG19wAB6Es2xGmPZSx2pjnEOgYf8amqzBsZQIDAQAB
AoGAK7Ws3L0VSOmDIG21e4kO0n9PPN3yhCtjMFEjqvIyHX5LoIjHTMimsbcwJvmt
3mNqZqbk/euuvdyhFm+PmJ6GajUGpNSXWFCOGuCzYyLsUSjF/29SU6ZYxNDlV19q
qEI3/QilzneWfQBZfpqy4uuI3FI1HzMNMV4WSOxVun0coe0CQQDmVBmEUMcwD/Ij
ogKSEpX5LngUh+1WkIHN9We82N97Qirwvkdp4jkXEfKDQKvt7q9eRDd9Rec9fdEb
AwNc0Sz7AkEAx+EZ1vuM07ow7pZCnCzIg3mWO3RpxWUCSfi/DmA9Kq/38ghfB6Pz
w6yUKNOtQqO2x2CG1UYzJzNUtO78Lt7OHwJAdinzJVSju96SZQF6vCHY2wuiAzZw
5pYgYd9ipxnEHWIm0Xds/79VdqZ4eim1is2HHp90sEoqhfuESY1ULkwJ/QJBAL/6
InlsDmzlrk3aIIwkL0qoI3VjcJvZUoN92POT1+wCK6FaDPwnqt/MCFnWRdl1qP6C
Zb6+uC70jG1kBO93rH0CQBXxzb+JQyehbRqxfkbHmKTlY9G3TJB3onN1Rgmndwg1
Ub9OSIWUIDiI1neUdTZ3bbhK+bxMNR+xm4lHTC2xD9Y=
-----END RSA PRIVATE KEY-----
Certificate:
    Data:
        Version: 1 (0x0)
        Serial Number: 1 (0x1)
        Signature Algorithm: md5WithRSAEncryption
        Issuer: O=Cavisson Systems, Inc./emailAddress=info@cavisson.com, L=Fremont, ST=California, C=US, CN=Root
        Validity
            Not Before: Aug 11 14:30:30 2009 GMT
            Not After : Aug  9 14:30:30 2019 GMT
        Subject: C=US, ST=California, O=Cavisson Systems, Inc., CN=Client
        Subject Public Key Info:
            Public Key Algorithm: rsaEncryption
            RSA Public Key: (1024 bit)
                Modulus (1024 bit):
                    00:b3:d5:e6:ff:eb:34:3f:6e:23:29:c0:29:ce:30:
                    06:df:12:6d:f6:79:01:d1:64:42:35:85:d3:5a:f2:
                    04:d9:39:fc:bc:1a:ee:d0:0e:f8:57:02:1a:6c:82:
                    c5:11:4c:1c:41:24:4c:a4:21:91:4b:1f:90:31:61:
                    aa:78:aa:57:28:31:c8:02:80:ec:86:8a:9a:40:5d:
                    b6:06:92:61:0e:4f:00:19:11:bc:d7:8f:df:42:84:
                    61:ce:17:a4:87:01:96:a5:75:9d:f5:9d:fa:06:d7:
                    dc:00:07:a1:2c:db:11:a6:3d:94:b1:da:98:e7:10:
                    e8:18:7f:c6:a6:ab:30:6c:65
                Exponent: 65537 (0x10001)
    Signature Algorithm: md5WithRSAEncryption
        ae:5a:20:ef:7e:1d:c9:3a:74:31:81:80:4c:c0:1a:99:2b:05:
        4d:1f:53:dd:a3:2b:a8:13:59:58:91:c5:cc:f3:54:d8:68:33:
        1b:cc:c0:49:5e:58:e9:ad:af:8a:ea:53:0c:bd:a9:8f:ea:ee:
        65:d7:95:41:c5:ab:37:34:e2:30:22:aa:bb:5b:62:78:7d:ad:
        54:dd:b9:8a:37:d1:6f:09:c0:6d:12:4e:0f:09:35:36:b9:bd:
        fc:dd:06:bc:78:82:b5:ba:93:3c:bb:ea:14:c2:b2:1e:69:4b:
        46:de:55:35:4b:d0:ae:f3:f3:0b:e1:e0:82:33:0d:db:28:65:
        98:77
-----BEGIN CERTIFICATE-----
MIICSjCCAbMCAQEwDQYJKoZIhvcNAQEEBQAwgYYxHzAdBgNVBAoTFkNhdmlzc29u
IFN5c3RlbXMsIEluYy4xIDAeBgkqhkiG9w0BCQEWEWluZm9AY2F2aXNzb24uY29t
MRAwDgYDVQQHEwdGcmVtb250MRMwEQYDVQQIEwpDYWxpZm9ybmlhMQswCQYDVQQG
EwJVUzENMAsGA1UEAxMEUm9vdDAeFw0wOTA4MTExNDMwMzBaFw0xOTA4MDkxNDMw
MzBaMFQxCzAJBgNVBAYTAlVTMRMwEQYDVQQIEwpDYWxpZm9ybmlhMR8wHQYDVQQK
ExZDYXZpc3NvbiBTeXN0ZW1zLCBJbmMuMQ8wDQYDVQQDEwZDbGllbnQwgZ8wDQYJ
KoZIhvcNAQEBBQADgY0AMIGJAoGBALPV5v/rND9uIynAKc4wBt8SbfZ5AdFkQjWF
01ryBNk5/Lwa7tAO+FcCGmyCxRFMHEEkTKQhkUsfkDFhqniqVygxyAKA7IaKmkBd
tgaSYQ5PABkRvNeP30KEYc4XpIcBlqV1nfWd+gbX3AAHoSzbEaY9lLHamOcQ6Bh/
xqarMGxlAgMBAAEwDQYJKoZIhvcNAQEEBQADgYEArlog734dyTp0MYGATMAamSsF
TR9T3aMrqBNZWJHFzPNU2GgzG8zASV5Y6a2viupTDL2pj+ruZdeVQcWrNzTiMCKq
u1tieH2tVN25ijfRbwnAbRJODwk1Nrm9/N0GvHiCtbqTPLvqFMKyHmlLRt5VNUvQ
rvPzC+HggjMN2yhlmHc=
-----END CERTIFICATE-----
