-----BEGIN RSA PRIVATE KEY-----
MIICWwIBAAKBgQC8xScE7yCZiMDIGh86nEqbtEzI5QyiRmCQwj1OOBYCvlz68URe
Xa7/uDKiDV2I4evPn12/jx3HbQvEpbaDT/yikEeNpy8a3Sb/o7M40btK7PTtwqi9
H9ND3sjYOrGmANm8L4+5CuN3ALzop0A9WjxsBGp1UAkrctkgsPD2gbdn5QIDAQAB
AoGAJhQO/uvNw6rWWIcMbaJBWo9QPeYWWlWf/RNxkmm15u/HicdJZ0+2kVbyv8W6
bHZGPyeCnbWc6DGTAiP7YRmteDSvO0j/+kBb4AbodWYcDjotmSJiFJJYEO9UbA4z
FM3D2zZBhreZ6Vs2kmGiONaYHfA3ak3oCh4V03n4PyxwD7ECQQDiw17MQ9tR0Qbd
mhnDsOke3BdegsDtDISEReTdADOVNXWcFDLXf834T4o1MY62nY2kpqtcRke+zj0x
zHqiUi+PAkEA1RvFCuFFRQo1wdQZlUE3UIpTy/U048GmMPexPkMCtYYz8fer0t0s
iRZGWhxsAlVtgr/x0VMKAQmKp+QYA/h3SwJALBacKc7Pp3qigRdjBv8wdAWKrZ9y
byRN54HHW4icftgkA7KRqAB7RVoBnxIBk1PSpD6bdpdbf6eNkk8VUNX11QJATkTi
u7o8/LxhPg0uUDkhnb0QRcqLYFMRPM7cFCf8aLsffPEf9FQzNS4vLI1fxgOmMu1Y
XS8Ib5UXjc4iW+L3vQJAZLqC4NaXJDOlvW6V6XIafPIygJUMZlWIQY3D0GVLTgog
SXXrMIqbT2xbWBhEOCDdLWyYT4kzhYep9sOBUKdFGw==
-----END RSA PRIVATE KEY-----
Certificate:
    Data:
        Version: 1 (0x0)
        Serial Number: 2 (0x2)
        Signature Algorithm: md5WithRSAEncryption
        Issuer: O=Cavisson Systems, Inc./emailAddress=info@cavisson.com, L=Fremont, ST=California, C=US, CN=Root
        Validity
            Not Before: Aug 11 14:27:20 2009 GMT
            Not After : Aug  9 14:27:20 2019 GMT
        Subject: C=US, ST=California, O=Cavisson Systems, Inc., CN=Client_revoke
        Subject Public Key Info:
            Public Key Algorithm: rsaEncryption
            RSA Public Key: (1024 bit)
                Modulus (1024 bit):
                    00:bc:c5:27:04:ef:20:99:88:c0:c8:1a:1f:3a:9c:
                    4a:9b:b4:4c:c8:e5:0c:a2:46:60:90:c2:3d:4e:38:
                    16:02:be:5c:fa:f1:44:5e:5d:ae:ff:b8:32:a2:0d:
                    5d:88:e1:eb:cf:9f:5d:bf:8f:1d:c7:6d:0b:c4:a5:
                    b6:83:4f:fc:a2:90:47:8d:a7:2f:1a:dd:26:ff:a3:
                    b3:38:d1:bb:4a:ec:f4:ed:c2:a8:bd:1f:d3:43:de:
                    c8:d8:3a:b1:a6:00:d9:bc:2f:8f:b9:0a:e3:77:00:
                    bc:e8:a7:40:3d:5a:3c:6c:04:6a:75:50:09:2b:72:
                    d9:20:b0:f0:f6:81:b7:67:e5
                Exponent: 65537 (0x10001)
    Signature Algorithm: md5WithRSAEncryption
        42:3c:c1:48:92:ad:eb:ce:f7:a8:25:04:e0:9f:3d:52:00:93:
        2f:91:61:b3:9f:50:7d:49:ca:c9:de:7e:28:d2:e3:1e:5c:74:
        19:30:07:a3:6e:d0:0f:29:da:7c:6f:6e:2b:27:b7:56:f5:1f:
        3d:2c:e5:36:61:9c:e5:aa:2f:ae:2e:76:93:de:c3:b2:58:6f:
        3a:e9:ff:54:30:d1:2b:a4:cf:80:6d:fe:84:19:81:84:33:bd:
        22:2c:54:53:72:5e:e7:68:70:e5:06:ad:2e:b4:7e:71:d8:41:
        52:16:23:92:a5:d0:2d:a2:c8:d3:29:c3:95:ad:e1:b3:24:1d:
        b8:45
-----BEGIN CERTIFICATE-----
MIICUTCCAboCAQIwDQYJKoZIhvcNAQEEBQAwgYYxHzAdBgNVBAoTFkNhdmlzc29u
IFN5c3RlbXMsIEluYy4xIDAeBgkqhkiG9w0BCQEWEWluZm9AY2F2aXNzb24uY29t
MRAwDgYDVQQHEwdGcmVtb250MRMwEQYDVQQIEwpDYWxpZm9ybmlhMQswCQYDVQQG
EwJVUzENMAsGA1UEAxMEUm9vdDAeFw0wOTA4MTExNDI3MjBaFw0xOTA4MDkxNDI3
MjBaMFsxCzAJBgNVBAYTAlVTMRMwEQYDVQQIEwpDYWxpZm9ybmlhMR8wHQYDVQQK
ExZDYXZpc3NvbiBTeXN0ZW1zLCBJbmMuMRYwFAYDVQQDFA1DbGllbnRfcmV2b2tl
MIGfMA0GCSqGSIb3DQEBAQUAA4GNADCBiQKBgQC8xScE7yCZiMDIGh86nEqbtEzI
5QyiRmCQwj1OOBYCvlz68UReXa7/uDKiDV2I4evPn12/jx3HbQvEpbaDT/yikEeN
py8a3Sb/o7M40btK7PTtwqi9H9ND3sjYOrGmANm8L4+5CuN3ALzop0A9WjxsBGp1
UAkrctkgsPD2gbdn5QIDAQABMA0GCSqGSIb3DQEBBAUAA4GBAEI8wUiSrevO96gl
BOCfPVIAky+RYbOfUH1JysnefijS4x5cdBkwB6Nu0A8p2nxvbisnt1b1Hz0s5TZh
nOWqL64udpPew7JYbzrp/1Qw0Sukz4Bt/oQZgYQzvSIsVFNyXudocOUGrS60fnHY
QVIWI5Kl0C2iyNMpw5Wt4bMkHbhF
-----END CERTIFICATE-----
