-----BEGIN RSA PRIVATE KEY-----
MIICXQIBAAKBgQDIu6lU8wjysfh2++krePKTlIXNl1OWygwlWzg1MEJ4cD3fibN/
KqdjZLzF8D5VXzNV0EBxtrnJI0vnBkvUzydewdHagSuFP1G8pPXuY0kmD+qD4kNB
LNTl8MuRkkEOVRxaKqMAYdfdkSKfzfZSpSFvg22BV8DXVIo4UNBm+gp+WwIDAQAB
AoGAQ1TnXM5U3wuhe0/Oi717KNO1+htbd4X4gwNRHE4+zaVgq73Fzs8g7K8avw5x
6jMPxiYfp8USFozXZfvvrcd6va7if3Qq95RQIZ0wINU/zfEHEoSoZTD9y+3BTim0
r+qc7y2j5GI0D0Vz4HIBoSHRCwx9nUOgveMw/YGg3iPvH4ECQQDuZPhi5aO8e+Ao
IPOMpiHrP/oGwGl+vFDyjPH4eJq+hXKPLbj/y6AGWFSC0L1imJBQtnxt0PyKLMUE
sWYz56lBAkEA146slqJw8ZkJ1Lj1+lh+y0yrp8uI3Bhog1kv/c6I6EuJ0goDXH/c
lqqwlhV22UIvo1dVBPo2iI77S9xNE6IEmwJBAIoNbsnWsjs0gVq7uk545quVIPVH
98+svjO362g4b2RlYzIHCFsZUFJcVJRszT+Lmgcjpmrx200pH+7XzJfCUAECQQCQ
2TACvT+WKdegWXX5d1Qkuu2ygKQD+mbotJr6O7pmFrSTLuVZWBZcLHEjOWM21TH7
2iiogpb4ptQZAv3MTpg3AkAzmnE4ghiMUcHPQL7kOPqw6DM9IQSW+Vz5Gjdkkhi/
ezMgdeUzK73PYgBHMMTcwtpZdQfNr+pgH4T6eHlP/t8s
-----END RSA PRIVATE KEY-----
Certificate:
    Data:
        Version: 1 (0x0)
        Serial Number: 1 (0x1)
        Signature Algorithm: md5WithRSAEncryption
        Issuer: O=Cavisson Systems, Inc./emailAddress=info@cavisson.com, L=Fremont, ST=California, C=US, CN=Root
        Validity
            Not Before: Aug 11 14:27:20 2009 GMT
            Not After : Aug  9 14:27:20 2019 GMT
        Subject: C=US, ST=California, O=Cavisson Systems, Inc., CN=Client
        Subject Public Key Info:
            Public Key Algorithm: rsaEncryption
            RSA Public Key: (1024 bit)
                Modulus (1024 bit):
                    00:c8:bb:a9:54:f3:08:f2:b1:f8:76:fb:e9:2b:78:
                    f2:93:94:85:cd:97:53:96:ca:0c:25:5b:38:35:30:
                    42:78:70:3d:df:89:b3:7f:2a:a7:63:64:bc:c5:f0:
                    3e:55:5f:33:55:d0:40:71:b6:b9:c9:23:4b:e7:06:
                    4b:d4:cf:27:5e:c1:d1:da:81:2b:85:3f:51:bc:a4:
                    f5:ee:63:49:26:0f:ea:83:e2:43:41:2c:d4:e5:f0:
                    cb:91:92:41:0e:55:1c:5a:2a:a3:00:61:d7:dd:91:
                    22:9f:cd:f6:52:a5:21:6f:83:6d:81:57:c0:d7:54:
                    8a:38:50:d0:66:fa:0a:7e:5b
                Exponent: 65537 (0x10001)
    Signature Algorithm: md5WithRSAEncryption
        76:03:d1:cc:21:5b:f9:6e:ca:1c:8f:c1:04:fa:dd:ed:c0:3a:
        74:b4:0a:45:a5:a2:9d:d4:cb:21:5c:42:60:df:6b:c2:05:5b:
        83:4e:3d:92:1d:a8:24:76:7b:54:fd:22:5b:92:c3:87:bd:d8:
        8f:96:71:34:0c:a0:f4:2b:e7:0b:b8:4b:7e:11:c3:05:63:b8:
        38:20:13:c5:86:f0:2a:07:ab:2b:ae:f4:ff:7f:85:65:6e:eb:
        1a:60:2b:8f:15:3c:34:2d:32:3f:a5:d8:9e:cc:17:20:de:f0:
        7a:d7:41:52:9d:90:05:ae:b3:5b:8d:2a:42:e1:6e:5e:70:9f:
        fb:fc
-----BEGIN CERTIFICATE-----
MIICSjCCAbMCAQEwDQYJKoZIhvcNAQEEBQAwgYYxHzAdBgNVBAoTFkNhdmlzc29u
IFN5c3RlbXMsIEluYy4xIDAeBgkqhkiG9w0BCQEWEWluZm9AY2F2aXNzb24uY29t
MRAwDgYDVQQHEwdGcmVtb250MRMwEQYDVQQIEwpDYWxpZm9ybmlhMQswCQYDVQQG
EwJVUzENMAsGA1UEAxMEUm9vdDAeFw0wOTA4MTExNDI3MjBaFw0xOTA4MDkxNDI3
MjBaMFQxCzAJBgNVBAYTAlVTMRMwEQYDVQQIEwpDYWxpZm9ybmlhMR8wHQYDVQQK
ExZDYXZpc3NvbiBTeXN0ZW1zLCBJbmMuMQ8wDQYDVQQDEwZDbGllbnQwgZ8wDQYJ
KoZIhvcNAQEBBQADgY0AMIGJAoGBAMi7qVTzCPKx+Hb76St48pOUhc2XU5bKDCVb
ODUwQnhwPd+Js38qp2NkvMXwPlVfM1XQQHG2uckjS+cGS9TPJ17B0dqBK4U/Ubyk
9e5jSSYP6oPiQ0Es1OXwy5GSQQ5VHFoqowBh192RIp/N9lKlIW+DbYFXwNdUijhQ
0Gb6Cn5bAgMBAAEwDQYJKoZIhvcNAQEEBQADgYEAdgPRzCFb+W7KHI/BBPrd7cA6
dLQKRaWindTLIVxCYN9rwgVbg049kh2oJHZ7VP0iW5LDh73Yj5ZxNAyg9CvnC7hL
fhHDBWO4OCATxYbwKgerK670/3+FZW7rGmArjxU8NC0yP6XYnswXIN7wetdBUp2Q
Ba6zW40qQuFuXnCf+/w=
-----END CERTIFICATE-----
