-----BEGIN RSA PRIVATE KEY-----
MIICXgIBAAKBgQDCfjL6Luf/NubDjZs+ac4GVYKVTfje8PaQZb+5IBy9JoYeHDB3
OIDWYyKPIjo4GwfIyN7BFWKGko/zNqch1Webxqx7XIqb59lYaZObzXDHBhmMMFpD
p+R8ZLPjpp0sbOLUnxlDbnA2uS+4gbAEcFA4m4OENxDe9P0VTGAIhOJ/1wIDAQAB
AoGBAKqWmgvJ3H6DHwBiUcn6b1Qq6DAghaq1Wu3n8LNlMQ/OnFAIlZHcI1Tm+sbk
VIAlZTx8wrREF3jFUDEYvJr2XLpDgPrRZwogQumhk/WoiWeoRSKIVFE9ZgOHM9t+
3+tIVSz6uCexwcu+KVEoYD7YE2o25L0ChpIbhSpgZzCoySoRAkEA5W3+P9t3N6ZD
D1Wit1kXUvN3DJTUaDgkkU4q3P0iStPp0RiVW8Hv+u9BpCvXI6XhbStiJOX6oZnI
0Trxl8ewpQJBANkEa/JAThU187VEE+mR5niiXoKcUjZ1KMOSdZIy2u7ZXt16a73u
f7/AnUPsoCD70BXKvdwsooc/m7rQpSoTKcsCQQDQvJQ3sQr0XJZimz0hpzLrS4si
rT3bXEkY0o944+2ROuBeVwl8pCQcoBWOsjxYuJEya+gtPfgbkvj8M66esxXpAkEA
jyTXfubjmiIIKlxJNhtChfezlzs9DyagSL/mRRS+TCWc6UHCp3kVUoneMdt2k8sF
KhqcuQnH+qX+Nm9BQkt5mQJAQ0v9EHmFhclCXnUwDO20ZN/V9ahvbx05ktxDbt6F
Ow8fubOyueJGzOyik5IFyl04si4n9qs8QTQ89Zinpa6jNg==
-----END RSA PRIVATE KEY-----
Certificate:
    Data:
        Version: 1 (0x0)
        Serial Number: 2 (0x2)
        Signature Algorithm: md5WithRSAEncryption
        Issuer: O=Cavisson Systems, Inc./emailAddress=info@cavisson.com, L=Fremont, ST=California, C=US, CN=Root
        Validity
            Not Before: Aug 11 14:30:30 2009 GMT
            Not After : Aug  9 14:30:30 2019 GMT
        Subject: C=US, ST=California, O=Cavisson Systems, Inc., CN=Client_revoke
        Subject Public Key Info:
            Public Key Algorithm: rsaEncryption
            RSA Public Key: (1024 bit)
                Modulus (1024 bit):
                    00:c2:7e:32:fa:2e:e7:ff:36:e6:c3:8d:9b:3e:69:
                    ce:06:55:82:95:4d:f8:de:f0:f6:90:65:bf:b9:20:
                    1c:bd:26:86:1e:1c:30:77:38:80:d6:63:22:8f:22:
                    3a:38:1b:07:c8:c8:de:c1:15:62:86:92:8f:f3:36:
                    a7:21:d5:67:9b:c6:ac:7b:5c:8a:9b:e7:d9:58:69:
                    93:9b:cd:70:c7:06:19:8c:30:5a:43:a7:e4:7c:64:
                    b3:e3:a6:9d:2c:6c:e2:d4:9f:19:43:6e:70:36:b9:
                    2f:b8:81:b0:04:70:50:38:9b:83:84:37:10:de:f4:
                    fd:15:4c:60:08:84:e2:7f:d7
                Exponent: 65537 (0x10001)
    Signature Algorithm: md5WithRSAEncryption
        3e:0d:f5:13:41:55:cc:82:32:14:b6:0f:43:bc:f5:f5:ff:de:
        21:fe:46:41:d9:9b:74:3b:a7:3a:7b:48:8b:64:37:02:75:50:
        d5:ab:6c:39:94:f7:3f:66:87:3c:e3:a6:ea:e5:72:bf:2e:a3:
        8b:50:ae:de:9b:09:14:18:39:b9:e4:2f:d7:17:d0:05:2e:45:
        fe:e2:60:34:97:42:15:23:57:22:91:79:d8:e9:12:75:8d:b9:
        5e:b8:29:b2:5e:22:6c:6e:83:b8:42:38:38:83:89:79:3f:c1:
        dc:ef:52:8b:a9:4c:bc:45:ca:41:79:df:79:33:20:2f:b2:5d:
        8e:d8
-----BEGIN CERTIFICATE-----
MIICUTCCAboCAQIwDQYJKoZIhvcNAQEEBQAwgYYxHzAdBgNVBAoTFkNhdmlzc29u
IFN5c3RlbXMsIEluYy4xIDAeBgkqhkiG9w0BCQEWEWluZm9AY2F2aXNzb24uY29t
MRAwDgYDVQQHEwdGcmVtb250MRMwEQYDVQQIEwpDYWxpZm9ybmlhMQswCQYDVQQG
EwJVUzENMAsGA1UEAxMEUm9vdDAeFw0wOTA4MTExNDMwMzBaFw0xOTA4MDkxNDMw
MzBaMFsxCzAJBgNVBAYTAlVTMRMwEQYDVQQIEwpDYWxpZm9ybmlhMR8wHQYDVQQK
ExZDYXZpc3NvbiBTeXN0ZW1zLCBJbmMuMRYwFAYDVQQDFA1DbGllbnRfcmV2b2tl
MIGfMA0GCSqGSIb3DQEBAQUAA4GNADCBiQKBgQDCfjL6Luf/NubDjZs+ac4GVYKV
Tfje8PaQZb+5IBy9JoYeHDB3OIDWYyKPIjo4GwfIyN7BFWKGko/zNqch1Webxqx7
XIqb59lYaZObzXDHBhmMMFpDp+R8ZLPjpp0sbOLUnxlDbnA2uS+4gbAEcFA4m4OE
NxDe9P0VTGAIhOJ/1wIDAQABMA0GCSqGSIb3DQEBBAUAA4GBAD4N9RNBVcyCMhS2
D0O89fX/3iH+RkHZm3Q7pzp7SItkNwJ1UNWrbDmU9z9mhzzjpurlcr8uo4tQrt6b
CRQYObnkL9cX0AUuRf7iYDSXQhUjVyKRedjpEnWNuV64KbJeImxug7hCODiDiXk/
wdzvUoupTLxFykF533kzIC+yXY7Y
-----END CERTIFICATE-----
