-----BEGIN PRIVATE KEY-----
MIICdwIBADANBgkqhkiG9w0BAQEFAASCAmEwggJdAgEAAoGBAK0h0aKD6l44sOs8
gF+JgLmjxGLOrH7DWs8LS9r50atr/tZMCfN7WSZvo4DKH5gRqdbu3e7mCo3xlrwE
6dS+WVjCe3+y09luWj5lN8czMFQu7OfpE8qFBF1dq1THi0TGBnSQEXeBAq9jRnyE
O3P/RAhJWAJOZnw8j1KdW9EuYxoZAgMBAAECgYB8uC8XPqZYB8jTPPtRV3GmyaXQ
dAfpLXu+SOn1Lh/vuFWVNKO6hbIcMTH8th56YscRsXOpBIi35kBq47M68YDUcpCB
YOZfn5ERKhTZNzhgKXA/UJI+fJIG+QfgVk10kiwquugBwJKdpYhW654wSpJcfeYw
siLDwJNzkZ9M3J0RgQJBAOXUwUJmw5kEqXVfjDoI+9GTKo3o/RuyzkGFDOf9/2WB
yAOLmZi3bfyO9lihS7j33fjAJ7Py6Yn/oyhPCgJOPQkCQQDA2F7gei7hSX8fG1ZR
gQ7LLMiJyVl66AH+016IYwfbEqPd/dBIdDcwn1kqAeO7AzYKzWcoQz+mjglCHg6J
qEiRAkEAklph2qvf4GAUnPaEMCyqVrF1RrrX+rxpFVXpew3GhdgYCxHpdFNSSaKs
ApJrytSkWBPc9H059DOCrVdvkzpJKQJBAKMUFp+kE5LmcT7gAk3oYpdEZs3GXQoH
uvBA1Ldnb5Q+Hh8zbXhn9ugCSQeyE1/ppkDaVHsC64ewo3mrK0YT7lECQFols3nk
2CzI/UlFy1oo4Orr+VRTDK9TIYl6g+lCHfelEr8XzX27xgm8hZif6j1H0SUC7ORS
pExbVcO2eW8TWQU=
-----END PRIVATE KEY-----
Certificate:
    Data:
        Version: 1 (0x0)
        Serial Number: 1 (0x1)
        Signature Algorithm: md5WithRSAEncryption
        Issuer: O=Cavisson Systems, Inc./emailAddress=info@cavisson.com, L=Fremont, ST=California, C=US, CN=Root
        Validity
            Not Before: May 14 12:42:04 2019 GMT
            Not After : May 11 12:42:04 2029 GMT
        Subject: C=US, ST=California, O=Cavisson Systems, Inc., CN=Client
        Subject Public Key Info:
            Public Key Algorithm: rsaEncryption
                RSA Public-Key: (1024 bit)
                Modulus:
                    00:ad:21:d1:a2:83:ea:5e:38:b0:eb:3c:80:5f:89:
                    80:b9:a3:c4:62:ce:ac:7e:c3:5a:cf:0b:4b:da:f9:
                    d1:ab:6b:fe:d6:4c:09:f3:7b:59:26:6f:a3:80:ca:
                    1f:98:11:a9:d6:ee:dd:ee:e6:0a:8d:f1:96:bc:04:
                    e9:d4:be:59:58:c2:7b:7f:b2:d3:d9:6e:5a:3e:65:
                    37:c7:33:30:54:2e:ec:e7:e9:13:ca:85:04:5d:5d:
                    ab:54:c7:8b:44:c6:06:74:90:11:77:81:02:af:63:
                    46:7c:84:3b:73:ff:44:08:49:58:02:4e:66:7c:3c:
                    8f:52:9d:5b:d1:2e:63:1a:19
                Exponent: 65537 (0x10001)
    Signature Algorithm: md5WithRSAEncryption
         5f:48:c2:81:0e:d3:2e:10:9d:50:3d:64:16:fd:5c:07:7a:3e:
         c2:48:14:02:90:cf:30:b7:00:47:b6:e5:e8:07:9a:d2:2e:12:
         7d:66:50:7a:a0:e3:00:27:c6:21:f0:d1:13:c2:3d:71:85:1d:
         4e:a9:cd:ab:fa:e6:e5:1f:02:10:e9:76:6d:bf:e6:f7:e1:cd:
         a8:85:73:0e:a9:a9:fd:f7:85:c5:a4:20:c5:1b:67:cd:aa:d3:
         3b:01:e8:59:ea:59:09:a9:10:a4:1c:3c:1b:15:42:59:c4:06:
         0d:e1:8d:9f:3b:79:1b:97:70:cb:b0:fe:28:d0:d6:f8:d1:33:
         87:ee
-----BEGIN CERTIFICATE-----
MIICSjCCAbMCAQEwDQYJKoZIhvcNAQEEBQAwgYYxHzAdBgNVBAoTFkNhdmlzc29u
IFN5c3RlbXMsIEluYy4xIDAeBgkqhkiG9w0BCQEWEWluZm9AY2F2aXNzb24uY29t
MRAwDgYDVQQHEwdGcmVtb250MRMwEQYDVQQIEwpDYWxpZm9ybmlhMQswCQYDVQQG
EwJVUzENMAsGA1UEAxMEUm9vdDAeFw0xOTA1MTQxMjQyMDRaFw0yOTA1MTExMjQy
MDRaMFQxCzAJBgNVBAYTAlVTMRMwEQYDVQQIEwpDYWxpZm9ybmlhMR8wHQYDVQQK
ExZDYXZpc3NvbiBTeXN0ZW1zLCBJbmMuMQ8wDQYDVQQDEwZDbGllbnQwgZ8wDQYJ
KoZIhvcNAQEBBQADgY0AMIGJAoGBAK0h0aKD6l44sOs8gF+JgLmjxGLOrH7DWs8L
S9r50atr/tZMCfN7WSZvo4DKH5gRqdbu3e7mCo3xlrwE6dS+WVjCe3+y09luWj5l
N8czMFQu7OfpE8qFBF1dq1THi0TGBnSQEXeBAq9jRnyEO3P/RAhJWAJOZnw8j1Kd
W9EuYxoZAgMBAAEwDQYJKoZIhvcNAQEEBQADgYEAX0jCgQ7TLhCdUD1kFv1cB3o+
wkgUApDPMLcAR7bl6Aea0i4SfWZQeqDjACfGIfDRE8I9cYUdTqnNq/rm5R8CEOl2
bb/m9+HNqIVzDqmp/feFxaQgxRtnzarTOwHoWepZCakQpBw8GxVCWcQGDeGNnzt5
G5dwy7D+KNDW+NEzh+4=
-----END CERTIFICATE-----
