-----BEGIN RSA PRIVATE KEY-----
MIICXQIBAAKBgQDqzobaC9Osn2zz0DHUQ7FYiXYHWklE5rPS4LfndxtyxisnPiK0
CBy5JFYhs33i7wjL/e3nWedT10JMQjCA49ZD/9y4ytoHlu2QTeJWVK88q1Sv33eQ
O0pijWVMxyHqRHZs1bSrQgEiX/oztPbOCNG9Rz4vQmvzbla0rNN/Y8N+UwIDAQAB
AoGBAJ1BvGcETLvr+hhAc17qBzh4t6es/C09JWoyPniy+JshxXz+zFcup64He/gO
Ml1uIcIdStwLBjbMkAZqvflUngacHWqeR5959DFAFPeRLO4fnREBD+hrQWqRiBjn
AEipyAmBr+GoZn+g6o8iD2DcWjGikenO7kEd/uC2MT2Tup7hAkEA/UfsSmqoBpyq
ufMxsDhzhigcvIfyurdUKiFY+t1rYo3NNmRe5O+bu2+weEo1+NrOTd9N+LtUnTFB
1PS61+5wJQJBAO1T1QrQxAlshi4P/mpYmc40Yv6JMBzf6vqdaJ3PhWEleOhl/78H
uiilY3U8GmKg1ZAzn7+9Q9Qb9fmSFVsMTxcCQFLHLd/Iae/3RgkOBYBNgtwmwfWQ
DPGfNx+p1HXw5cbJB3euaCE0elZRE4DM6ETT5jcnM0mGmAnj7lsWPPaTlA0CQQCt
LTUSFVBXSBeJWSZe15Q0AcoSzmyLRWGjymTicuFzB/L4MiWycaMHsdenXloqig4M
kX8KXMM37cdJe62VqJ+1AkBujXZMtkvczctuXU/TT9xx61dDvHM9vqJTAM8tLY2k
eHiryn79BKIbikTcih8AYise/SmRAl1ZaLCm5VPg7LF+
-----END RSA PRIVATE KEY-----
Certificate:
    Data:
        Version: 1 (0x0)
        Serial Number: 2 (0x2)
        Signature Algorithm: md5WithRSAEncryption
        Issuer: O=Cavisson Systems, Inc./emailAddress=info@cavisson.com, L=Fremont, ST=California, C=US, CN=Root
        Validity
            Not Before: Aug 11 14:27:43 2009 GMT
            Not After : Aug  9 14:27:43 2019 GMT
        Subject: C=US, ST=California, O=Cavisson Systems, Inc., CN=Client_revoke
        Subject Public Key Info:
            Public Key Algorithm: rsaEncryption
            RSA Public Key: (1024 bit)
                Modulus (1024 bit):
                    00:ea:ce:86:da:0b:d3:ac:9f:6c:f3:d0:31:d4:43:
                    b1:58:89:76:07:5a:49:44:e6:b3:d2:e0:b7:e7:77:
                    1b:72:c6:2b:27:3e:22:b4:08:1c:b9:24:56:21:b3:
                    7d:e2:ef:08:cb:fd:ed:e7:59:e7:53:d7:42:4c:42:
                    30:80:e3:d6:43:ff:dc:b8:ca:da:07:96:ed:90:4d:
                    e2:56:54:af:3c:ab:54:af:df:77:90:3b:4a:62:8d:
                    65:4c:c7:21:ea:44:76:6c:d5:b4:ab:42:01:22:5f:
                    fa:33:b4:f6:ce:08:d1:bd:47:3e:2f:42:6b:f3:6e:
                    56:b4:ac:d3:7f:63:c3:7e:53
                Exponent: 65537 (0x10001)
    Signature Algorithm: md5WithRSAEncryption
        d3:e9:3c:de:4c:36:c5:46:1a:14:10:cd:d0:32:cf:fe:df:78:
        09:c7:82:bc:aa:ff:c9:e3:9b:a4:54:e8:5a:fb:ea:95:46:14:
        ca:93:ce:16:ef:40:f6:43:90:d3:9e:36:2a:81:55:59:bc:05:
        00:bf:59:49:4f:82:75:e9:b0:13:3f:57:1e:a7:1c:f1:38:9b:
        fc:3b:ae:e2:a1:02:64:d6:f8:4c:9b:fc:c8:1e:41:1a:e4:ff:
        6e:bd:70:25:23:96:5d:22:cb:42:e2:19:05:b7:19:6b:85:54:
        5a:09:4a:25:fc:0f:d5:84:bd:da:ca:f7:c9:3c:35:c3:fb:42:
        84:4a
-----BEGIN CERTIFICATE-----
MIICUTCCAboCAQIwDQYJKoZIhvcNAQEEBQAwgYYxHzAdBgNVBAoTFkNhdmlzc29u
IFN5c3RlbXMsIEluYy4xIDAeBgkqhkiG9w0BCQEWEWluZm9AY2F2aXNzb24uY29t
MRAwDgYDVQQHEwdGcmVtb250MRMwEQYDVQQIEwpDYWxpZm9ybmlhMQswCQYDVQQG
EwJVUzENMAsGA1UEAxMEUm9vdDAeFw0wOTA4MTExNDI3NDNaFw0xOTA4MDkxNDI3
NDNaMFsxCzAJBgNVBAYTAlVTMRMwEQYDVQQIEwpDYWxpZm9ybmlhMR8wHQYDVQQK
ExZDYXZpc3NvbiBTeXN0ZW1zLCBJbmMuMRYwFAYDVQQDFA1DbGllbnRfcmV2b2tl
MIGfMA0GCSqGSIb3DQEBAQUAA4GNADCBiQKBgQDqzobaC9Osn2zz0DHUQ7FYiXYH
WklE5rPS4LfndxtyxisnPiK0CBy5JFYhs33i7wjL/e3nWedT10JMQjCA49ZD/9y4
ytoHlu2QTeJWVK88q1Sv33eQO0pijWVMxyHqRHZs1bSrQgEiX/oztPbOCNG9Rz4v
Qmvzbla0rNN/Y8N+UwIDAQABMA0GCSqGSIb3DQEBBAUAA4GBANPpPN5MNsVGGhQQ
zdAyz/7feAnHgryq/8njm6RU6Fr76pVGFMqTzhbvQPZDkNOeNiqBVVm8BQC/WUlP
gnXpsBM/Vx6nHPE4m/w7ruKhAmTW+Eyb/MgeQRrk/269cCUjll0iy0LiGQW3GWuF
VFoJSiX8D9WEvdrK98k8NcP7QoRK
-----END CERTIFICATE-----
