-----BEGIN EC PARAMETERS-----
BggqhkjOPQMBBw==
-----END EC PARAMETERS-----
-----BEGIN EC PRIVATE KEY-----
MHcCAQEEIIh+IbIFiolcvlq4qGjU8rJK4ugWqy7qRIvUdSmyn45ooAoGCCqGSM49
AwEHoUQDQgAEVn59UmLfbzgn2ijZ+BxwswACnBJoh0TQiwqaX7gRDT0y9QEW+c0I
OdX1fgRmncF6jMLkKl9XuR9TClUmJszcFA==
-----END EC PRIVATE KEY-----
Certificate:
    Data:
        Version: 1 (0x0)
        Serial Number: 32 (0x20)
    Signature Algorithm: ecdsa-with-SHA256
        Issuer: O=Cavisson Systems, Inc./emailAddress=info@cavisson.com, L=Fremont, ST=California, C=US, CN=Root
        Validity
            Not Before: Jul 25 06:59:50 2014 GMT
            Not After : Jul 22 06:59:50 2024 GMT
        Subject: C=US, ST=California, O=Cavisson Systems, Inc., CN=Server
        Subject Public Key Info:
            Public Key Algorithm: id-ecPublicKey
                Public-Key: (256 bit)
                pub: 
                    04:56:7e:7d:52:62:df:6f:38:27:da:28:d9:f8:1c:
                    70:b3:00:02:9c:12:68:87:44:d0:8b:0a:9a:5f:b8:
                    11:0d:3d:32:f5:01:16:f9:cd:08:39:d5:f5:7e:04:
                    66:9d:c1:7a:8c:c2:e4:2a:5f:57:b9:1f:53:0a:55:
                    26:26:cc:dc:14
                ASN1 OID: prime256v1
    Signature Algorithm: ecdsa-with-SHA256
         30:46:02:21:00:f9:af:85:01:92:63:7d:e4:98:7e:82:33:bc:
         22:22:ff:c9:3f:e8:c6:be:1f:9a:a5:21:6b:68:08:df:71:92:
         89:02:21:00:e5:2b:ec:e8:9f:81:5f:b4:74:e7:8e:66:b9:09:
         8f:c8:d8:db:22:9c:69:13:3e:b6:41:5a:02:71:4e:ec:18:c4
-----BEGIN CERTIFICATE-----
MIIBxDCCAWkCASAwCgYIKoZIzj0EAwIwgYYxHzAdBgNVBAoTFkNhdmlzc29uIFN5
c3RlbXMsIEluYy4xIDAeBgkqhkiG9w0BCQEWEWluZm9AY2F2aXNzb24uY29tMRAw
DgYDVQQHEwdGcmVtb250MRMwEQYDVQQIEwpDYWxpZm9ybmlhMQswCQYDVQQGEwJV
UzENMAsGA1UEAxMEUm9vdDAeFw0xNDA3MjUwNjU5NTBaFw0yNDA3MjIwNjU5NTBa
MFQxCzAJBgNVBAYTAlVTMRMwEQYDVQQIEwpDYWxpZm9ybmlhMR8wHQYDVQQKExZD
YXZpc3NvbiBTeXN0ZW1zLCBJbmMuMQ8wDQYDVQQDEwZTZXJ2ZXIwWTATBgcqhkjO
PQIBBggqhkjOPQMBBwNCAARWfn1SYt9vOCfaKNn4HHCzAAKcEmiHRNCLCppfuBEN
PTL1ARb5zQg51fV+BGadwXqMwuQqX1e5H1MKVSYmzNwUMAoGCCqGSM49BAMCA0kA
MEYCIQD5r4UBkmN95Jh+gjO8IiL/yT/oxr4fmqUha2gI33GSiQIhAOUr7OifgV+0
dOeOZrkJj8jY2yKcaRM+tkFaAnFO7BjE
-----END CERTIFICATE-----
