-----BEGIN PRIVATE KEY-----
MIICdQIBADANBgkqhkiG9w0BAQEFAASCAl8wggJbAgEAAoGBANKE1aB3QBmpBwck
o2DQ+9+g9t0SkFkrM/w/69g6KPRZBJ3jCRQmTPLpcvY8MVztUtb6mdqcVCs7h6rV
JyUqExZn7TbtCP0kdKySofKKY0hf6c3qAbVMZNCFhazEmHRdA3zGa47tai9rPUE/
0thP/OyiYxeCzJs304SdQ6wbu2adAgMBAAECgYB/XG/l2d+E5rbiwm65ZxXK0JYp
X07HM5UK2h00PtOCKMzbPHzEnPtWxpePkxEGOGoyt4AXOxbM5QIJ/1TkbhUHEovu
kpIqurkc9X0rDlu873xMo0HCm5hhOzwAXTpTQ7VEBFRM7If0ExgpETmjb5kCbxqb
NC85p1sZoeCJsFC8IQJBAPmdT/BmWpPV5G3TixTFyaHW/pMHzfInu1YSAiteItGL
ro1Up3bC9LRsin5oeH/xzn3rYBAyn/rYKoODZQCZmBUCQQDX532s752lSf0T+RKa
RwaQMomB5cDcsGFiAyy2LM0z1baES2h2TizbmpLi5StOPGUOIJn0exgDA/wNlezF
l25pAkBw4VAWMeNCOZb8h468zRj6xCQJz5y1pnwUVz596CsswdMk/KRik5Vfxjn3
Ij1j9rDfxsKBcLNiF8FaCeByHgNlAkBixbbLDPwUCBtNrd8C0YeBJH2f/ZoT3GVQ
z57+4NQn6JeNQmpR5UXEWZzlTG5ZZmvc4LFOFZpQltwS4wnlA3gxAkAmjHnArD1f
LqqdiQPxjzdJ0pi8zav3JqdxrhcWPupnP3iiX1UjXxlwbr9Vo8stDAbFJrHySADT
oBVqbmGLg8o5
-----END PRIVATE KEY-----
Certificate:
    Data:
        Version: 1 (0x0)
        Serial Number: 3 (0x3)
        Signature Algorithm: md5WithRSAEncryption
        Issuer: O=Cavisson Systems, Inc./emailAddress=info@cavisson.com, L=Fremont, ST=California, C=US, CN=Root
        Validity
            Not Before: May 14 05:13:01 2019 GMT
            Not After : May 11 05:13:01 2029 GMT
        Subject: C=US, ST=California, O=Cavisson Systems, Inc., CN=Server
        Subject Public Key Info:
            Public Key Algorithm: rsaEncryption
                RSA Public-Key: (1024 bit)
                Modulus:
                    00:d2:84:d5:a0:77:40:19:a9:07:07:24:a3:60:d0:
                    fb:df:a0:f6:dd:12:90:59:2b:33:fc:3f:eb:d8:3a:
                    28:f4:59:04:9d:e3:09:14:26:4c:f2:e9:72:f6:3c:
                    31:5c:ed:52:d6:fa:99:da:9c:54:2b:3b:87:aa:d5:
                    27:25:2a:13:16:67:ed:36:ed:08:fd:24:74:ac:92:
                    a1:f2:8a:63:48:5f:e9:cd:ea:01:b5:4c:64:d0:85:
                    85:ac:c4:98:74:5d:03:7c:c6:6b:8e:ed:6a:2f:6b:
                    3d:41:3f:d2:d8:4f:fc:ec:a2:63:17:82:cc:9b:37:
                    d3:84:9d:43:ac:1b:bb:66:9d
                Exponent: 65537 (0x10001)
    Signature Algorithm: md5WithRSAEncryption
         9c:b3:5a:f9:f2:83:2e:7f:60:58:0b:dd:27:5e:9d:83:7b:f9:
         d4:56:01:ff:9e:92:85:87:9e:77:a4:29:9f:59:64:cd:6c:9d:
         3f:f3:27:28:c6:79:bb:a7:92:c5:6a:5c:de:a1:ed:c8:44:22:
         e9:d2:78:0f:b7:af:3e:a5:bd:6a:44:4a:ec:d1:2b:67:68:03:
         ca:49:0b:b8:17:6c:8d:da:4f:6a:c1:1d:e0:47:db:fc:26:ed:
         f0:56:66:2e:fd:45:fd:e8:4b:35:2e:f5:7d:57:cb:7e:d3:06:
         ac:58:6e:45:22:6f:cc:44:5d:61:3b:6a:0e:56:65:a4:17:1a:
         f2:6d
-----BEGIN CERTIFICATE-----
MIICSjCCAbMCAQMwDQYJKoZIhvcNAQEEBQAwgYYxHzAdBgNVBAoTFkNhdmlzc29u
IFN5c3RlbXMsIEluYy4xIDAeBgkqhkiG9w0BCQEWEWluZm9AY2F2aXNzb24uY29t
MRAwDgYDVQQHEwdGcmVtb250MRMwEQYDVQQIEwpDYWxpZm9ybmlhMQswCQYDVQQG
EwJVUzENMAsGA1UEAxMEUm9vdDAeFw0xOTA1MTQwNTEzMDFaFw0yOTA1MTEwNTEz
MDFaMFQxCzAJBgNVBAYTAlVTMRMwEQYDVQQIEwpDYWxpZm9ybmlhMR8wHQYDVQQK
ExZDYXZpc3NvbiBTeXN0ZW1zLCBJbmMuMQ8wDQYDVQQDEwZTZXJ2ZXIwgZ8wDQYJ
KoZIhvcNAQEBBQADgY0AMIGJAoGBANKE1aB3QBmpBwcko2DQ+9+g9t0SkFkrM/w/
69g6KPRZBJ3jCRQmTPLpcvY8MVztUtb6mdqcVCs7h6rVJyUqExZn7TbtCP0kdKyS
ofKKY0hf6c3qAbVMZNCFhazEmHRdA3zGa47tai9rPUE/0thP/OyiYxeCzJs304Sd
Q6wbu2adAgMBAAEwDQYJKoZIhvcNAQEEBQADgYEAnLNa+fKDLn9gWAvdJ16dg3v5
1FYB/56ShYeed6Qpn1lkzWydP/MnKMZ5u6eSxWpc3qHtyEQi6dJ4D7evPqW9akRK
7NErZ2gDykkLuBdsjdpPasEd4Efb/Cbt8FZmLv1F/ehLNS71fVfLftMGrFhuRSJv
zERdYTtqDlZlpBca8m0=
-----END CERTIFICATE-----
