-----BEGIN RSA PRIVATE KEY-----
MIICXAIBAAKBgQC7uT0Hd/GcnKSKkncjZya3TFjzmbwp9mMJhV2+znhvgNpM0qv+
sdfj4vdUqArnzvrLvEjW0aNZKvqAZO6mDNWqndqU6hcQQSYYeKTb2ShQ0sGc0/V4
KIvWZWjYxPYoRCBuTtA2sXc1U7S5xakkFKFBUmJHCGQsd6GgydY+GjWXVQIDAQAB
AoGAE2CqsROriBwPTBKUY74pG/Cwmey7pKU/UeNHawPLIM9vOVDh2jenbmmmWEHE
ZmtSLiewaSRYtUKfexNwIwneIEJK8RWa6s+0fJ5yS2Z8xifKrZ/+ipW07VUgqYh0
cUmHdwNo/fZ9SMJewDklPXYt1uzC4FZAQdOGZKpF3L6Fi+ECQQDcLpx1VQ6v/5oq
L2+1ldBRkGfZvfsfckIJb8Fcquw4UwFVchl0C1MttxjW/NhbeHQDR+iJWIB1ddtw
4tUGxOQJAkEA2kLoRuS6qmrcf1DVzTXqoSzDgIyI8kMNfSkWdPjJdkx6X/TmWd5/
NICwt15bQqpK9YBGAf5i8bOT+fxXKYdj7QJAJPWqC8QIYCC+xyAJV2jbfCWKWTGb
ys6KKT1aLuz+FAJS8f3iKemQv9bBU61DwC77AmX6sbtqbM0o1c0txyIbyQJAQGYn
dOt+LFRVdPdb7i2vahj0IlTU/25LZ5ec+ayCfPY50WBIK1IcBFjIS4J6uOPYNDHB
9kqh1SEgU01iRm2dTQJBAMC9PwdKn9mtg2DXsYsd+ImbztjOfuHkopRiS3NvICmp
1IFq05aVuGDIBjHGkVwY25HrgxhOQFC/QR56oGE+U38=
-----END RSA PRIVATE KEY-----
Certificate:
    Data:
        Version: 1 (0x0)
        Serial Number: 1 (0x1)
        Signature Algorithm: md5WithRSAEncryption
        Issuer: C=US, ST=California, O=Cavisson Systems, Inc., CN=Intermediate1
        Validity
            Not Before: Aug 11 14:27:23 2009 GMT
            Not After : Aug  9 14:27:23 2019 GMT
        Subject: C=US, ST=California, O=Cavisson Systems, Inc., CN=Server
        Subject Public Key Info:
            Public Key Algorithm: rsaEncryption
            RSA Public Key: (1024 bit)
                Modulus (1024 bit):
                    00:bb:b9:3d:07:77:f1:9c:9c:a4:8a:92:77:23:67:
                    26:b7:4c:58:f3:99:bc:29:f6:63:09:85:5d:be:ce:
                    78:6f:80:da:4c:d2:ab:fe:b1:d7:e3:e2:f7:54:a8:
                    0a:e7:ce:fa:cb:bc:48:d6:d1:a3:59:2a:fa:80:64:
                    ee:a6:0c:d5:aa:9d:da:94:ea:17:10:41:26:18:78:
                    a4:db:d9:28:50:d2:c1:9c:d3:f5:78:28:8b:d6:65:
                    68:d8:c4:f6:28:44:20:6e:4e:d0:36:b1:77:35:53:
                    b4:b9:c5:a9:24:14:a1:41:52:62:47:08:64:2c:77:
                    a1:a0:c9:d6:3e:1a:35:97:55
                Exponent: 65537 (0x10001)
    Signature Algorithm: md5WithRSAEncryption
        94:b4:b8:11:8d:70:5e:bf:07:16:0e:0c:34:8f:72:88:07:cd:
        35:b4:a8:21:2f:62:88:ad:ef:0c:82:58:cd:a5:34:37:7b:3e:
        b0:ef:df:bc:db:17:99:67:47:3e:12:56:c7:45:01:2d:14:19:
        8d:43:60:e9:16:59:7b:5b:e1:29:08:7d:86:7f:dc:9f:4a:53:
        9f:6b:12:e4:5d:61:ae:f2:40:a2:20:41:3e:62:63:0d:89:ce:
        01:53:7c:08:64:1f:a6:99:e7:e9:66:31:8d:8c:45:b8:d5:92:
        df:82:6f:64:f5:da:91:ef:17:f2:f1:af:c6:63:81:77:ad:3d:
        d1:fa
-----BEGIN CERTIFICATE-----
MIICHjCCAYcCAQEwDQYJKoZIhvcNAQEEBQAwWzELMAkGA1UEBhMCVVMxEzARBgNV
BAgTCkNhbGlmb3JuaWExHzAdBgNVBAoTFkNhdmlzc29uIFN5c3RlbXMsIEluYy4x
FjAUBgNVBAMTDUludGVybWVkaWF0ZTEwHhcNMDkwODExMTQyNzIzWhcNMTkwODA5
MTQyNzIzWjBUMQswCQYDVQQGEwJVUzETMBEGA1UECBMKQ2FsaWZvcm5pYTEfMB0G
A1UEChMWQ2F2aXNzb24gU3lzdGVtcywgSW5jLjEPMA0GA1UEAxMGU2VydmVyMIGf
MA0GCSqGSIb3DQEBAQUAA4GNADCBiQKBgQC7uT0Hd/GcnKSKkncjZya3TFjzmbwp
9mMJhV2+znhvgNpM0qv+sdfj4vdUqArnzvrLvEjW0aNZKvqAZO6mDNWqndqU6hcQ
QSYYeKTb2ShQ0sGc0/V4KIvWZWjYxPYoRCBuTtA2sXc1U7S5xakkFKFBUmJHCGQs
d6GgydY+GjWXVQIDAQABMA0GCSqGSIb3DQEBBAUAA4GBAJS0uBGNcF6/BxYODDSP
cogHzTW0qCEvYoit7wyCWM2lNDd7PrDv37zbF5lnRz4SVsdFAS0UGY1DYOkWWXtb
4SkIfYZ/3J9KU59rEuRdYa7yQKIgQT5iYw2JzgFTfAhkH6aZ5+lmMY2MRbjVkt+C
b2T12pHvF/Lxr8ZjgXetPdH6
-----END CERTIFICATE-----
Certificate:
    Data:
        Version: 3 (0x2)
        Serial Number: 1 (0x1)
        Signature Algorithm: md5WithRSAEncryption
        Issuer: C=US, ST=California, O=Cavisson Systems, Inc., CN=Intermediate0
        Validity
            Not Before: Aug 11 14:27:22 2009 GMT
            Not After : Aug  9 14:27:22 2019 GMT
        Subject: C=US, ST=California, O=Cavisson Systems, Inc., CN=Intermediate1
        Subject Public Key Info:
            Public Key Algorithm: rsaEncryption
            RSA Public Key: (1024 bit)
                Modulus (1024 bit):
                    00:d7:da:23:44:1e:95:66:0d:e8:16:39:0f:b8:40:
                    0d:f2:a7:cd:ca:d0:2c:aa:78:08:b3:d0:e3:d3:2c:
                    6e:05:d7:7d:9f:89:e8:02:b6:51:f5:4f:39:00:27:
                    49:49:64:27:75:3b:2c:49:a3:39:65:17:5a:49:91:
                    f3:e0:80:ac:bd:2f:35:36:ac:53:d7:af:fe:1f:d6:
                    f1:9d:c7:71:99:72:25:03:a4:c1:d9:c4:bc:34:bb:
                    a0:e4:19:18:70:2d:66:13:42:e5:c7:39:7b:d5:af:
                    eb:19:51:ee:77:b4:5e:83:28:75:38:25:c9:51:e2:
                    a9:80:ef:9f:a6:8a:7e:6f:ed
                Exponent: 65537 (0x10001)
        X509v3 extensions:
            X509v3 Basic Constraints: 
                CA:TRUE
            X509v3 Subject Key Identifier: 
                36:15:E0:13:53:58:E0:7C:4E:86:64:B1:61:EE:9F:97:B0:47:30:CC
            X509v3 Authority Key Identifier: 
                keyid:67:B1:F9:7F:9C:C3:B9:B3:4E:97:26:F6:45:BB:F8:96:E9:69:24:6F
                DirName:/O=Cavisson Systems, Inc./emailAddress=info@cavisson.com/L=Fremont/ST=California/C=US/CN=Root
                serial:03

    Signature Algorithm: md5WithRSAEncryption
        52:53:e7:25:93:7d:d0:24:69:16:3c:28:28:92:4b:be:d0:fe:
        8e:4c:b2:4c:02:74:9f:0f:0a:6f:06:2b:45:48:67:0d:3d:43:
        7e:17:94:18:49:c9:97:0b:81:33:ba:59:54:15:cf:9f:8a:1a:
        4a:05:60:9a:74:88:cd:ca:71:85:5e:90:2d:21:b2:f1:7d:55:
        a4:8f:08:2f:cf:fe:35:a3:56:ff:8d:41:31:6b:c9:c8:82:8d:
        df:75:13:40:cd:82:de:fd:4b:28:e7:a9:b0:f0:cc:10:93:fc:
        b4:fb:b5:01:af:1c:5a:42:4d:01:03:ff:7f:03:e6:fe:5a:e5:
        38:6d
-----BEGIN CERTIFICATE-----
MIIDEzCCAnygAwIBAgIBATANBgkqhkiG9w0BAQQFADBbMQswCQYDVQQGEwJVUzET
MBEGA1UECBMKQ2FsaWZvcm5pYTEfMB0GA1UEChMWQ2F2aXNzb24gU3lzdGVtcywg
SW5jLjEWMBQGA1UEAxMNSW50ZXJtZWRpYXRlMDAeFw0wOTA4MTExNDI3MjJaFw0x
OTA4MDkxNDI3MjJaMFsxCzAJBgNVBAYTAlVTMRMwEQYDVQQIEwpDYWxpZm9ybmlh
MR8wHQYDVQQKExZDYXZpc3NvbiBTeXN0ZW1zLCBJbmMuMRYwFAYDVQQDEw1JbnRl
cm1lZGlhdGUxMIGfMA0GCSqGSIb3DQEBAQUAA4GNADCBiQKBgQDX2iNEHpVmDegW
OQ+4QA3yp83K0CyqeAiz0OPTLG4F132fiegCtlH1TzkAJ0lJZCd1OyxJozllF1pJ
kfPggKy9LzU2rFPXr/4f1vGdx3GZciUDpMHZxLw0u6DkGRhwLWYTQuXHOXvVr+sZ
Ue53tF6DKHU4JclR4qmA75+min5v7QIDAQABo4HmMIHjMAwGA1UdEwQFMAMBAf8w
HQYDVR0OBBYEFDYV4BNTWOB8ToZksWHun5ewRzDMMIGzBgNVHSMEgaswgaiAFGex
+X+cw7mzTpcm9kW7+JbpaSRvoYGMpIGJMIGGMR8wHQYDVQQKExZDYXZpc3NvbiBT
eXN0ZW1zLCBJbmMuMSAwHgYJKoZIhvcNAQkBFhFpbmZvQGNhdmlzc29uLmNvbTEQ
MA4GA1UEBxMHRnJlbW9udDETMBEGA1UECBMKQ2FsaWZvcm5pYTELMAkGA1UEBhMC
VVMxDTALBgNVBAMTBFJvb3SCAQMwDQYJKoZIhvcNAQEEBQADgYEAUlPnJZN90CRp
FjwoKJJLvtD+jkyyTAJ0nw8KbwYrRUhnDT1DfheUGEnJlwuBM7pZVBXPn4oaSgVg
mnSIzcpxhV6QLSGy8X1VpI8IL8/+NaNW/41BMWvJyIKN33UTQM2C3v1LKOepsPDM
EJP8tPu1Aa8cWkJNAQP/fwPm/lrlOG0=
-----END CERTIFICATE-----
Certificate:
    Data:
        Version: 3 (0x2)
        Serial Number: 3 (0x3)
        Signature Algorithm: md5WithRSAEncryption
        Issuer: O=Cavisson Systems, Inc./emailAddress=info@cavisson.com, L=Fremont, ST=California, C=US, CN=Root
        Validity
            Not Before: Aug 11 14:27:20 2009 GMT
            Not After : Aug  9 14:27:20 2019 GMT
        Subject: C=US, ST=California, O=Cavisson Systems, Inc., CN=Intermediate0
        Subject Public Key Info:
            Public Key Algorithm: rsaEncryption
            RSA Public Key: (1024 bit)
                Modulus (1024 bit):
                    00:be:68:fc:dd:dd:46:8a:ea:22:6e:f6:19:1a:8d:
                    6e:d1:92:26:3b:b3:f5:68:94:c9:30:9b:ca:58:57:
                    85:35:b5:2b:35:ee:98:d7:80:64:71:c9:c0:c6:7e:
                    95:82:37:06:c6:41:6a:1d:3a:e3:85:dd:9f:a7:e0:
                    95:9f:2c:cf:69:45:47:d7:db:4f:e9:55:12:4a:3b:
                    7b:25:54:62:a8:f2:d8:1b:19:fd:7f:e7:16:db:03:
                    40:8f:91:ea:9a:f1:20:ef:32:bc:b0:ef:85:06:f4:
                    8e:c7:7a:da:6e:af:8a:e8:c2:2e:93:6f:60:26:74:
                    c9:c6:f0:76:72:e2:d5:f5:5f
                Exponent: 65537 (0x10001)
        X509v3 extensions:
            X509v3 Basic Constraints: 
                CA:TRUE
            X509v3 Subject Key Identifier: 
                67:B1:F9:7F:9C:C3:B9:B3:4E:97:26:F6:45:BB:F8:96:E9:69:24:6F
            X509v3 Authority Key Identifier: 
                keyid:38:D3:CF:F5:73:05:1C:E4:45:94:B9:F7:D2:5A:C4:03:E7:E8:48:E8
                DirName:/O=Cavisson Systems, Inc./emailAddress=info@cavisson.com/L=Fremont/ST=California/C=US/CN=Root
                serial:09

    Signature Algorithm: md5WithRSAEncryption
        8b:81:32:a0:35:4c:65:7d:09:42:bf:a8:31:42:b8:ec:02:41:
        eb:19:af:f7:cc:61:cc:4a:0c:f4:cf:ff:01:2c:ab:1e:5c:40:
        10:bc:1a:eb:bf:3f:9f:27:05:3a:f7:ad:e4:6d:a5:9f:cd:b7:
        77:38:45:b0:c4:bb:21:58:9a:9c:55:f8:42:25:1f:3e:e8:bd:
        06:39:fd:25:41:fc:55:ea:5f:6f:eb:39:4e:49:8c:81:50:f9:
        96:f2:42:2e:19:44:ec:d9:14:9e:7d:e6:bd:74:22:f8:f0:b9:
        93:65:d7:2f:0e:27:3a:2e:63:7f:02:2d:71:18:9b:53:7a:c9:
        a6:44
-----BEGIN CERTIFICATE-----
MIIDPzCCAqigAwIBAgIBAzANBgkqhkiG9w0BAQQFADCBhjEfMB0GA1UEChMWQ2F2
aXNzb24gU3lzdGVtcywgSW5jLjEgMB4GCSqGSIb3DQEJARYRaW5mb0BjYXZpc3Nv
bi5jb20xEDAOBgNVBAcTB0ZyZW1vbnQxEzARBgNVBAgTCkNhbGlmb3JuaWExCzAJ
BgNVBAYTAlVTMQ0wCwYDVQQDEwRSb290MB4XDTA5MDgxMTE0MjcyMFoXDTE5MDgw
OTE0MjcyMFowWzELMAkGA1UEBhMCVVMxEzARBgNVBAgTCkNhbGlmb3JuaWExHzAd
BgNVBAoTFkNhdmlzc29uIFN5c3RlbXMsIEluYy4xFjAUBgNVBAMTDUludGVybWVk
aWF0ZTAwgZ8wDQYJKoZIhvcNAQEBBQADgY0AMIGJAoGBAL5o/N3dRorqIm72GRqN
btGSJjuz9WiUyTCbylhXhTW1KzXumNeAZHHJwMZ+lYI3BsZBah0644Xdn6fglZ8s
z2lFR9fbT+lVEko7eyVUYqjy2BsZ/X/nFtsDQI+R6prxIO8yvLDvhQb0jsd62m6v
iujCLpNvYCZ0ycbwdnLi1fVfAgMBAAGjgeYwgeMwDAYDVR0TBAUwAwEB/zAdBgNV
HQ4EFgQUZ7H5f5zDubNOlyb2Rbv4lulpJG8wgbMGA1UdIwSBqzCBqIAUONPP9XMF
HORFlLn30lrEA+foSOihgYykgYkwgYYxHzAdBgNVBAoTFkNhdmlzc29uIFN5c3Rl
bXMsIEluYy4xIDAeBgkqhkiG9w0BCQEWEWluZm9AY2F2aXNzb24uY29tMRAwDgYD
VQQHEwdGcmVtb250MRMwEQYDVQQIEwpDYWxpZm9ybmlhMQswCQYDVQQGEwJVUzEN
MAsGA1UEAxMEUm9vdIIBCTANBgkqhkiG9w0BAQQFAAOBgQCLgTKgNUxlfQlCv6gx
QrjsAkHrGa/3zGHMSgz0z/8BLKseXEAQvBrrvz+fJwU6963kbaWfzbd3OEWwxLsh
WJqcVfhCJR8+6L0GOf0lQfxV6l9v6zlOSYyBUPmW8kIuGUTs2RSefea9dCL48LmT
ZdcvDic6LmN/Ai1xGJtTesmmRA==
-----END CERTIFICATE-----
-----BEGIN CERTIFICATE-----
MIIDazCCAtSgAwIBAgIBCTANBgkqhkiG9w0BAQQFADCBhjEfMB0GA1UEChMWQ2F2
aXNzb24gU3lzdGVtcywgSW5jLjEgMB4GCSqGSIb3DQEJARYRaW5mb0BjYXZpc3Nv
bi5jb20xEDAOBgNVBAcTB0ZyZW1vbnQxEzARBgNVBAgTCkNhbGlmb3JuaWExCzAJ
BgNVBAYTAlVTMQ0wCwYDVQQDEwRSb290MB4XDTA5MDgxMTE0MjcyMFoXDTE5MDgw
OTE0MjcyMFowgYYxHzAdBgNVBAoTFkNhdmlzc29uIFN5c3RlbXMsIEluYy4xIDAe
BgkqhkiG9w0BCQEWEWluZm9AY2F2aXNzb24uY29tMRAwDgYDVQQHEwdGcmVtb250
MRMwEQYDVQQIEwpDYWxpZm9ybmlhMQswCQYDVQQGEwJVUzENMAsGA1UEAxMEUm9v
dDCBnzANBgkqhkiG9w0BAQEFAAOBjQAwgYkCgYEAvto7zXKw/2bC67Dd5RAts3BY
caUBzMJgLWINI6KvBys7pHGs0KTA6xw28/ihiTqSbwbn4/u978GwaFAvXrEQjsdg
SfeS+uaCsg+i7y9hClUrYkE1c5MRbRBDRcMAm6on6Y/bCEG2wsMqV6S7xfzpAA45
7OtsAUVwpxDj1urXNCcCAwEAAaOB5jCB4zAMBgNVHRMEBTADAQH/MB0GA1UdDgQW
BBQ408/1cwUc5EWUuffSWsQD5+hI6DCBswYDVR0jBIGrMIGogBQ408/1cwUc5EWU
uffSWsQD5+hI6KGBjKSBiTCBhjEfMB0GA1UEChMWQ2F2aXNzb24gU3lzdGVtcywg
SW5jLjEgMB4GCSqGSIb3DQEJARYRaW5mb0BjYXZpc3Nvbi5jb20xEDAOBgNVBAcT
B0ZyZW1vbnQxEzARBgNVBAgTCkNhbGlmb3JuaWExCzAJBgNVBAYTAlVTMQ0wCwYD
VQQDEwRSb290ggEJMA0GCSqGSIb3DQEBBAUAA4GBAHeWKKAoarR2MTQsvuht2RYY
177QM4kzgD8wLvakkUoSbt25ozxDR1y4u7TbI+25ulO4YEYIOZ69m/vN3DGy2F/3
642H5VjPVMhLX1seH8wUrxCufUUtgpKIHA/uPFneV1JcJIZw5gZ6RRQDg0ebOIMM
FmVFP0iJ+MDyHmMc2C0Y
-----END CERTIFICATE-----
