-----BEGIN RSA PRIVATE KEY-----
MIICXAIBAAKBgQCkawNKhVjf9oOSBwazYDCKWtsJg+pPXUw0rkNC2k46xp70hwDw
9K6zkdH73MuNvS7UMweX8RgTP+ZeIzL2c5W9d2c1FJ9fAqOu3NnFIR0GcL9UFrtS
JP6XouRG58lFwRKbQ2SAlp9gcC1Lwf1ouCjYqDKytKZ681Bnt4JZHjMtgwIDAQAB
AoGAJepLmv6/LP6C/sTCBdFzwCQNiNczzFN+hFN/TUZcbe9progHboluVBiXbNZQ
1oG+785IvQArBh1hOWoykWS8LdNEWro33ymuNhpRu+c4HCE+ghZJQI6tcsrWz+2b
v8JvtmWFUmDLgkMiWNREVqfntsA/p8c6lecLHg48vxeSYXECQQDXVjHp+TJxGmLu
Rr8zb6f/otP/bTISJ1zz8y6m/4Vo3kNGsLuiu1Nu0+3EkXhG3W8b05BQ1TR47TMa
Am9UDOg7AkEAw3dOtIGHSOUx1jf9J6AiM1c481Ikepv8QhBvmcZBc286CO/e72u7
UHG1jfFel9d0DRoBba/RhSkRqfhcft1DWQJAVJ+4D+Xxr8cZ1+APpcwcbnbz7y5f
fgjgG7KWw+Qo7pRiRfaQVpxdZnF8wEIWzWqaDopu7YVMELXO3krUq2hDHwJBALJN
+D7S1Zzabl7Sjh0Ch5A75ZiYeuxZtIBzS8qDvprVgKQ8ZCoVJTbZs1s7LiXnBVca
POlY9BC7iQB6ra2Qm2kCQHHDBhceTykzI0uRxfSP/MsNElLFYspz6vB+cQNlfEIC
c/RxKaxktc1+sUQ+KUiVRyvufPaAwN6v4pLRTXW7W+E=
-----END RSA PRIVATE KEY-----
Certificate:
    Data:
        Version: 1 (0x0)
        Serial Number: 1 (0x1)
        Signature Algorithm: md5WithRSAEncryption
        Issuer: C=US, ST=California, O=Cavisson Systems, Inc., CN=Intermediate4
        Validity
            Not Before: Aug 11 14:25:39 2009 GMT
            Not After : Aug  9 14:25:39 2019 GMT
        Subject: C=US, ST=California, O=Cavisson Systems, Inc., CN=Server
        Subject Public Key Info:
            Public Key Algorithm: rsaEncryption
            RSA Public Key: (1024 bit)
                Modulus (1024 bit):
                    00:a4:6b:03:4a:85:58:df:f6:83:92:07:06:b3:60:
                    30:8a:5a:db:09:83:ea:4f:5d:4c:34:ae:43:42:da:
                    4e:3a:c6:9e:f4:87:00:f0:f4:ae:b3:91:d1:fb:dc:
                    cb:8d:bd:2e:d4:33:07:97:f1:18:13:3f:e6:5e:23:
                    32:f6:73:95:bd:77:67:35:14:9f:5f:02:a3:ae:dc:
                    d9:c5:21:1d:06:70:bf:54:16:bb:52:24:fe:97:a2:
                    e4:46:e7:c9:45:c1:12:9b:43:64:80:96:9f:60:70:
                    2d:4b:c1:fd:68:b8:28:d8:a8:32:b2:b4:a6:7a:f3:
                    50:67:b7:82:59:1e:33:2d:83
                Exponent: 65537 (0x10001)
    Signature Algorithm: md5WithRSAEncryption
        a2:e3:06:80:9b:c7:b2:b2:fb:02:f5:c0:4c:64:4a:c5:7f:dc:
        5c:55:81:76:e8:39:67:49:11:c1:1e:9c:38:5e:d2:b8:f0:f2:
        d3:3c:3f:5d:06:9b:d5:55:8b:fd:58:34:91:85:9e:bc:0a:2e:
        9c:4f:5d:ab:55:5b:1e:3f:8f:25:18:65:9c:10:ad:4f:45:ec:
        e6:a0:bd:07:5d:f3:71:18:cb:c0:27:14:d9:b1:7d:6e:b0:51:
        22:8f:20:6f:67:93:3f:b9:85:9a:7d:27:ce:d7:e5:6d:d3:59:
        77:86:90:66:4d:d9:fb:a6:2d:1a:16:c6:4d:10:33:ab:bf:80:
        19:46
-----BEGIN CERTIFICATE-----
MIICHjCCAYcCAQEwDQYJKoZIhvcNAQEEBQAwWzELMAkGA1UEBhMCVVMxEzARBgNV
BAgTCkNhbGlmb3JuaWExHzAdBgNVBAoTFkNhdmlzc29uIFN5c3RlbXMsIEluYy4x
FjAUBgNVBAMTDUludGVybWVkaWF0ZTQwHhcNMDkwODExMTQyNTM5WhcNMTkwODA5
MTQyNTM5WjBUMQswCQYDVQQGEwJVUzETMBEGA1UECBMKQ2FsaWZvcm5pYTEfMB0G
A1UEChMWQ2F2aXNzb24gU3lzdGVtcywgSW5jLjEPMA0GA1UEAxMGU2VydmVyMIGf
MA0GCSqGSIb3DQEBAQUAA4GNADCBiQKBgQCkawNKhVjf9oOSBwazYDCKWtsJg+pP
XUw0rkNC2k46xp70hwDw9K6zkdH73MuNvS7UMweX8RgTP+ZeIzL2c5W9d2c1FJ9f
AqOu3NnFIR0GcL9UFrtSJP6XouRG58lFwRKbQ2SAlp9gcC1Lwf1ouCjYqDKytKZ6
81Bnt4JZHjMtgwIDAQABMA0GCSqGSIb3DQEBBAUAA4GBAKLjBoCbx7Ky+wL1wExk
SsV/3FxVgXboOWdJEcEenDhe0rjw8tM8P10Gm9VVi/1YNJGFnrwKLpxPXatVWx4/
jyUYZZwQrU9F7OagvQdd83EYy8AnFNmxfW6wUSKPIG9nkz+5hZp9J87X5W3TWXeG
kGZN2fumLRoWxk0QM6u/gBlG
-----END CERTIFICATE-----
Certificate:
    Data:
        Version: 3 (0x2)
        Serial Number: 1 (0x1)
        Signature Algorithm: md5WithRSAEncryption
        Issuer: C=US, ST=California, O=Cavisson Systems, Inc., CN=Intermediate3
        Validity
            Not Before: Aug 11 14:25:38 2009 GMT
            Not After : Aug  9 14:25:38 2019 GMT
        Subject: C=US, ST=California, O=Cavisson Systems, Inc., CN=Intermediate4
        Subject Public Key Info:
            Public Key Algorithm: rsaEncryption
            RSA Public Key: (1024 bit)
                Modulus (1024 bit):
                    00:af:c8:b1:73:9d:26:ba:1b:0a:02:52:27:e6:e2:
                    56:91:be:49:42:b0:2a:f2:52:93:50:bd:34:e4:b2:
                    c1:cd:3b:09:f8:e4:d4:d6:28:b2:31:88:e2:ca:54:
                    b5:46:72:d2:55:c8:ba:94:b9:73:94:82:b5:78:46:
                    cb:72:d6:30:66:d3:74:38:c1:57:60:a9:5d:e1:5e:
                    82:80:9b:35:57:c7:9a:28:bc:71:17:fc:72:48:f8:
                    0e:a6:c1:c8:2a:ac:4e:1a:c9:80:c5:e4:43:9c:e3:
                    91:d9:e4:75:c9:07:2d:c2:c1:6d:a4:3b:a2:42:2a:
                    56:92:43:29:ff:1d:f4:61:55
                Exponent: 65537 (0x10001)
        X509v3 extensions:
            X509v3 Basic Constraints: 
                CA:TRUE
            X509v3 Subject Key Identifier: 
                C0:D2:57:55:CB:08:4F:25:F3:D6:F2:E9:28:13:8B:92:59:D2:22:DD
            X509v3 Authority Key Identifier: 
                keyid:E0:C6:E5:2B:7E:30:28:C0:C2:51:B1:D8:4F:38:82:6D:06:9F:64:C9
                DirName:/C=US/ST=California/O=Cavisson Systems, Inc./CN=Intermediate2
                serial:01

    Signature Algorithm: md5WithRSAEncryption
        64:eb:2a:a8:a7:2d:70:a9:96:02:83:85:46:98:52:8f:46:ca:
        e7:09:fa:a3:bc:8f:21:81:09:5e:22:c0:ce:8e:4a:38:a7:f8:
        b4:e8:45:c7:cc:84:18:f5:7e:c7:c9:aa:58:5e:eb:36:85:e3:
        d2:c8:26:3b:7a:5b:bd:38:77:fa:10:35:00:50:73:bb:64:e0:
        aa:c6:a4:a9:4c:b9:3c:98:95:9e:9c:c3:05:bb:0b:ee:d2:76:
        67:c4:7e:01:c0:c6:b2:25:3b:4c:48:40:46:13:64:99:c4:8c:
        56:64:c5:a2:07:47:e3:58:b3:ac:a7:f5:ca:b5:7d:f6:c5:f2:
        9c:0b
-----BEGIN CERTIFICATE-----
MIIC4zCCAkygAwIBAgIBATANBgkqhkiG9w0BAQQFADBbMQswCQYDVQQGEwJVUzET
MBEGA1UECBMKQ2FsaWZvcm5pYTEfMB0GA1UEChMWQ2F2aXNzb24gU3lzdGVtcywg
SW5jLjEWMBQGA1UEAxMNSW50ZXJtZWRpYXRlMzAeFw0wOTA4MTExNDI1MzhaFw0x
OTA4MDkxNDI1MzhaMFsxCzAJBgNVBAYTAlVTMRMwEQYDVQQIEwpDYWxpZm9ybmlh
MR8wHQYDVQQKExZDYXZpc3NvbiBTeXN0ZW1zLCBJbmMuMRYwFAYDVQQDEw1JbnRl
cm1lZGlhdGU0MIGfMA0GCSqGSIb3DQEBAQUAA4GNADCBiQKBgQCvyLFznSa6GwoC
Uifm4laRvklCsCryUpNQvTTkssHNOwn45NTWKLIxiOLKVLVGctJVyLqUuXOUgrV4
Rsty1jBm03Q4wVdgqV3hXoKAmzVXx5oovHEX/HJI+A6mwcgqrE4ayYDF5EOc45HZ
5HXJBy3CwW2kO6JCKlaSQyn/HfRhVQIDAQABo4G2MIGzMAwGA1UdEwQFMAMBAf8w
HQYDVR0OBBYEFMDSV1XLCE8l89by6SgTi5JZ0iLdMIGDBgNVHSMEfDB6gBTgxuUr
fjAowMJRsdhPOIJtBp9kyaFfpF0wWzELMAkGA1UEBhMCVVMxEzARBgNVBAgTCkNh
bGlmb3JuaWExHzAdBgNVBAoTFkNhdmlzc29uIFN5c3RlbXMsIEluYy4xFjAUBgNV
BAMTDUludGVybWVkaWF0ZTKCAQEwDQYJKoZIhvcNAQEEBQADgYEAZOsqqKctcKmW
AoOFRphSj0bK5wn6o7yPIYEJXiLAzo5KOKf4tOhFx8yEGPV+x8mqWF7rNoXj0sgm
O3pbvTh3+hA1AFBzu2TgqsakqUy5PJiVnpzDBbsL7tJ2Z8R+AcDGsiU7TEhARhNk
mcSMVmTFogdH41izrKf1yrV99sXynAs=
-----END CERTIFICATE-----
Certificate:
    Data:
        Version: 3 (0x2)
        Serial Number: 1 (0x1)
        Signature Algorithm: md5WithRSAEncryption
        Issuer: C=US, ST=California, O=Cavisson Systems, Inc., CN=Intermediate2
        Validity
            Not Before: Aug 11 14:25:36 2009 GMT
            Not After : Aug  9 14:25:36 2019 GMT
        Subject: C=US, ST=California, O=Cavisson Systems, Inc., CN=Intermediate3
        Subject Public Key Info:
            Public Key Algorithm: rsaEncryption
            RSA Public Key: (1024 bit)
                Modulus (1024 bit):
                    00:c7:cf:a3:46:00:63:4c:fe:05:ee:08:6e:74:5a:
                    a9:46:56:f5:9a:20:42:c7:83:12:aa:6e:f3:52:a3:
                    74:5c:a7:d2:fc:df:33:2b:40:e6:0c:5c:ea:1c:9f:
                    8f:0f:06:4a:41:3a:91:39:44:a2:c4:24:c0:2a:66:
                    67:00:eb:b1:ba:19:76:98:fa:07:28:da:a1:fe:7e:
                    6e:db:1d:0d:89:bd:08:3e:7a:89:61:74:80:33:dd:
                    d2:86:55:32:3d:5e:33:49:94:4c:4d:49:11:f7:39:
                    12:07:56:f3:24:b1:45:7e:4c:e4:ba:e4:1f:e4:dd:
                    47:85:d8:9a:ab:7e:9d:39:0d
                Exponent: 65537 (0x10001)
        X509v3 extensions:
            X509v3 Basic Constraints: 
                CA:TRUE
            X509v3 Subject Key Identifier: 
                E0:C6:E5:2B:7E:30:28:C0:C2:51:B1:D8:4F:38:82:6D:06:9F:64:C9
            X509v3 Authority Key Identifier: 
                keyid:41:BC:3C:18:69:AF:57:EC:B8:DE:6D:98:C1:CD:F2:04:C4:81:43:67
                DirName:/C=US/ST=California/O=Cavisson Systems, Inc./CN=Intermediate1
                serial:01

    Signature Algorithm: md5WithRSAEncryption
        00:5f:6e:d9:32:dc:d4:a5:46:5e:ed:29:fd:23:de:75:db:55:
        f3:ef:93:b8:b1:e0:83:7e:37:72:a3:14:f3:e1:c4:4a:90:ae:
        98:40:21:7b:bb:64:ab:c1:29:f4:f3:b0:2e:6b:e7:40:bb:5e:
        72:14:7c:5c:56:5c:b2:3f:d3:45:7f:01:38:e0:9a:f6:f1:6b:
        89:dc:fb:33:c1:a0:a7:8c:d4:a3:d5:ec:91:25:c8:79:a2:f6:
        e4:4f:4c:d6:6e:72:cb:47:69:70:43:29:1e:ec:4e:6b:ef:68:
        d3:b2:e8:e9:5e:c6:25:ee:67:1a:59:35:96:e0:35:e5:6c:03:
        fd:e0
-----BEGIN CERTIFICATE-----
MIIC4zCCAkygAwIBAgIBATANBgkqhkiG9w0BAQQFADBbMQswCQYDVQQGEwJVUzET
MBEGA1UECBMKQ2FsaWZvcm5pYTEfMB0GA1UEChMWQ2F2aXNzb24gU3lzdGVtcywg
SW5jLjEWMBQGA1UEAxMNSW50ZXJtZWRpYXRlMjAeFw0wOTA4MTExNDI1MzZaFw0x
OTA4MDkxNDI1MzZaMFsxCzAJBgNVBAYTAlVTMRMwEQYDVQQIEwpDYWxpZm9ybmlh
MR8wHQYDVQQKExZDYXZpc3NvbiBTeXN0ZW1zLCBJbmMuMRYwFAYDVQQDEw1JbnRl
cm1lZGlhdGUzMIGfMA0GCSqGSIb3DQEBAQUAA4GNADCBiQKBgQDHz6NGAGNM/gXu
CG50WqlGVvWaIELHgxKqbvNSo3Rcp9L83zMrQOYMXOocn48PBkpBOpE5RKLEJMAq
ZmcA67G6GXaY+gco2qH+fm7bHQ2JvQg+eolhdIAz3dKGVTI9XjNJlExNSRH3ORIH
VvMksUV+TOS65B/k3UeF2Jqrfp05DQIDAQABo4G2MIGzMAwGA1UdEwQFMAMBAf8w
HQYDVR0OBBYEFODG5St+MCjAwlGx2E84gm0Gn2TJMIGDBgNVHSMEfDB6gBRBvDwY
aa9X7LjebZjBzfIExIFDZ6FfpF0wWzELMAkGA1UEBhMCVVMxEzARBgNVBAgTCkNh
bGlmb3JuaWExHzAdBgNVBAoTFkNhdmlzc29uIFN5c3RlbXMsIEluYy4xFjAUBgNV
BAMTDUludGVybWVkaWF0ZTGCAQEwDQYJKoZIhvcNAQEEBQADgYEAAF9u2TLc1KVG
Xu0p/SPeddtV8++TuLHgg343cqMU8+HESpCumEAhe7tkq8Ep9POwLmvnQLtechR8
XFZcsj/TRX8BOOCa9vFridz7M8Ggp4zUo9XskSXIeaL25E9M1m5yy0dpcEMpHuxO
a+9o07Lo6V7GJe5nGlk1luA15WwD/eA=
-----END CERTIFICATE-----
Certificate:
    Data:
        Version: 3 (0x2)
        Serial Number: 1 (0x1)
        Signature Algorithm: md5WithRSAEncryption
        Issuer: C=US, ST=California, O=Cavisson Systems, Inc., CN=Intermediate1
        Validity
            Not Before: Aug 11 14:25:35 2009 GMT
            Not After : Aug  9 14:25:35 2019 GMT
        Subject: C=US, ST=California, O=Cavisson Systems, Inc., CN=Intermediate2
        Subject Public Key Info:
            Public Key Algorithm: rsaEncryption
            RSA Public Key: (1024 bit)
                Modulus (1024 bit):
                    00:c1:b9:e4:08:41:dc:5f:d1:1e:51:0c:1b:9d:fe:
                    0b:bd:27:d1:c2:09:24:28:0f:c5:9e:a2:55:a6:fe:
                    14:a0:76:db:87:75:f8:6c:3d:35:ea:59:24:7f:28:
                    21:33:af:fc:f9:bc:de:8e:03:fe:e2:4e:e3:a5:93:
                    9f:90:d4:7d:c1:6d:0b:95:bd:85:fc:30:5f:b7:31:
                    f8:4d:7c:d1:b3:f5:70:7b:83:c1:bd:97:d3:f4:f1:
                    69:4d:eb:b7:b2:77:d6:a2:2b:28:73:6c:19:8b:5f:
                    ba:73:bb:5c:2f:43:a4:2e:75:08:58:2b:e4:71:6b:
                    47:4d:df:e6:7b:62:5a:1f:b1
                Exponent: 65537 (0x10001)
        X509v3 extensions:
            X509v3 Basic Constraints: 
                CA:TRUE
            X509v3 Subject Key Identifier: 
                41:BC:3C:18:69:AF:57:EC:B8:DE:6D:98:C1:CD:F2:04:C4:81:43:67
            X509v3 Authority Key Identifier: 
                keyid:DC:F3:11:4D:14:13:D0:96:2E:40:71:EB:BD:24:4B:A2:7F:68:E5:6F
                DirName:/C=US/ST=California/O=Cavisson Systems, Inc./CN=Intermediate0
                serial:01

    Signature Algorithm: md5WithRSAEncryption
        81:44:58:2a:53:85:70:46:1a:d4:f2:74:7d:78:ea:3c:e1:bd:
        73:e2:52:52:73:1d:23:cf:78:3c:00:c0:73:6e:83:32:0e:a0:
        fa:8e:83:42:55:83:bd:5b:ce:54:44:5f:14:1d:7b:24:d7:ed:
        08:38:05:f5:f9:92:2f:ce:59:16:87:d6:e7:83:9a:00:63:9b:
        4d:69:4b:37:6c:d1:f9:95:c3:ea:4d:39:e1:f6:28:fa:e5:5d:
        e4:5c:ae:74:5c:97:3d:e6:79:87:76:50:20:f1:6e:50:58:0d:
        44:ad:d2:fe:b9:15:46:92:71:ed:f3:28:d0:c8:48:ca:63:90:
        19:c6
-----BEGIN CERTIFICATE-----
MIIC4zCCAkygAwIBAgIBATANBgkqhkiG9w0BAQQFADBbMQswCQYDVQQGEwJVUzET
MBEGA1UECBMKQ2FsaWZvcm5pYTEfMB0GA1UEChMWQ2F2aXNzb24gU3lzdGVtcywg
SW5jLjEWMBQGA1UEAxMNSW50ZXJtZWRpYXRlMTAeFw0wOTA4MTExNDI1MzVaFw0x
OTA4MDkxNDI1MzVaMFsxCzAJBgNVBAYTAlVTMRMwEQYDVQQIEwpDYWxpZm9ybmlh
MR8wHQYDVQQKExZDYXZpc3NvbiBTeXN0ZW1zLCBJbmMuMRYwFAYDVQQDEw1JbnRl
cm1lZGlhdGUyMIGfMA0GCSqGSIb3DQEBAQUAA4GNADCBiQKBgQDBueQIQdxf0R5R
DBud/gu9J9HCCSQoD8WeolWm/hSgdtuHdfhsPTXqWSR/KCEzr/z5vN6OA/7iTuOl
k5+Q1H3BbQuVvYX8MF+3MfhNfNGz9XB7g8G9l9P08WlN67eyd9aiKyhzbBmLX7pz
u1wvQ6QudQhYK+Rxa0dN3+Z7YlofsQIDAQABo4G2MIGzMAwGA1UdEwQFMAMBAf8w
HQYDVR0OBBYEFEG8PBhpr1fsuN5tmMHN8gTEgUNnMIGDBgNVHSMEfDB6gBTc8xFN
FBPQli5Aceu9JEuif2jlb6FfpF0wWzELMAkGA1UEBhMCVVMxEzARBgNVBAgTCkNh
bGlmb3JuaWExHzAdBgNVBAoTFkNhdmlzc29uIFN5c3RlbXMsIEluYy4xFjAUBgNV
BAMTDUludGVybWVkaWF0ZTCCAQEwDQYJKoZIhvcNAQEEBQADgYEAgURYKlOFcEYa
1PJ0fXjqPOG9c+JSUnMdI894PADAc26DMg6g+o6DQlWDvVvOVERfFB17JNftCDgF
9fmSL85ZFofW54OaAGObTWlLN2zR+ZXD6k054fYo+uVd5FyudFyXPeZ5h3ZQIPFu
UFgNRK3S/rkVRpJx7fMo0MhIymOQGcY=
-----END CERTIFICATE-----
Certificate:
    Data:
        Version: 3 (0x2)
        Serial Number: 1 (0x1)
        Signature Algorithm: md5WithRSAEncryption
        Issuer: C=US, ST=California, O=Cavisson Systems, Inc., CN=Intermediate0
        Validity
            Not Before: Aug 11 14:25:34 2009 GMT
            Not After : Aug  9 14:25:34 2019 GMT
        Subject: C=US, ST=California, O=Cavisson Systems, Inc., CN=Intermediate1
        Subject Public Key Info:
            Public Key Algorithm: rsaEncryption
            RSA Public Key: (1024 bit)
                Modulus (1024 bit):
                    00:de:15:57:af:68:e5:7a:1f:0f:9e:63:c2:e7:6e:
                    f3:63:97:d0:67:22:dc:ad:32:07:a9:89:f9:28:f8:
                    31:ea:d2:2e:6a:49:d4:44:34:82:37:ad:0c:32:e5:
                    a6:a0:b2:18:c5:0f:84:7d:69:46:29:6f:58:b4:f9:
                    82:e6:db:eb:ff:7b:45:89:41:a4:60:56:77:82:8e:
                    0f:6c:2a:ea:2b:f8:0e:86:26:2d:81:73:74:e9:64:
                    c5:ec:5b:6a:c1:e7:3a:f1:96:90:30:02:2a:59:fb:
                    a8:81:29:77:50:80:98:52:67:b3:83:82:46:f3:6d:
                    c5:88:a1:b2:a1:d9:61:03:11
                Exponent: 65537 (0x10001)
        X509v3 extensions:
            X509v3 Basic Constraints: 
                CA:TRUE
            X509v3 Subject Key Identifier: 
                DC:F3:11:4D:14:13:D0:96:2E:40:71:EB:BD:24:4B:A2:7F:68:E5:6F
            X509v3 Authority Key Identifier: 
                keyid:4F:DA:63:AC:20:BF:CB:F0:66:EA:1F:E6:1D:4F:E7:5F:FE:9D:F4:6A
                DirName:/O=Cavisson Systems, Inc./emailAddress=info@cavisson.com/L=Fremont/ST=California/C=US/CN=Root
                serial:03

    Signature Algorithm: md5WithRSAEncryption
        9b:93:ce:5c:99:9e:14:e5:4a:65:96:fd:1c:e3:77:a4:47:33:
        98:f0:c2:3a:dc:6f:f4:1d:0b:73:48:c3:ba:51:f4:1d:b0:e4:
        1f:4f:f1:8d:d4:d8:4a:0d:82:b8:56:3f:0e:b0:ba:06:3b:15:
        ba:38:d4:7d:15:64:0e:4f:fc:66:23:53:6b:0c:a8:3d:47:b6:
        9a:5a:f5:e5:0e:4a:6d:ca:a9:5a:d6:f0:e2:22:fc:b8:3b:7c:
        c9:27:dc:a4:50:b8:42:14:ec:09:17:3b:49:66:f4:9e:3c:dd:
        00:32:67:fb:a3:fe:b8:09:06:6c:1b:5a:cd:fb:9c:6c:48:89:
        ca:db
-----BEGIN CERTIFICATE-----
MIIDEzCCAnygAwIBAgIBATANBgkqhkiG9w0BAQQFADBbMQswCQYDVQQGEwJVUzET
MBEGA1UECBMKQ2FsaWZvcm5pYTEfMB0GA1UEChMWQ2F2aXNzb24gU3lzdGVtcywg
SW5jLjEWMBQGA1UEAxMNSW50ZXJtZWRpYXRlMDAeFw0wOTA4MTExNDI1MzRaFw0x
OTA4MDkxNDI1MzRaMFsxCzAJBgNVBAYTAlVTMRMwEQYDVQQIEwpDYWxpZm9ybmlh
MR8wHQYDVQQKExZDYXZpc3NvbiBTeXN0ZW1zLCBJbmMuMRYwFAYDVQQDEw1JbnRl
cm1lZGlhdGUxMIGfMA0GCSqGSIb3DQEBAQUAA4GNADCBiQKBgQDeFVevaOV6Hw+e
Y8LnbvNjl9BnItytMgepifko+DHq0i5qSdRENII3rQwy5aagshjFD4R9aUYpb1i0
+YLm2+v/e0WJQaRgVneCjg9sKuor+A6GJi2Bc3TpZMXsW2rB5zrxlpAwAipZ+6iB
KXdQgJhSZ7ODgkbzbcWIobKh2WEDEQIDAQABo4HmMIHjMAwGA1UdEwQFMAMBAf8w
HQYDVR0OBBYEFNzzEU0UE9CWLkBx670kS6J/aOVvMIGzBgNVHSMEgaswgaiAFE/a
Y6wgv8vwZuof5h1P51/+nfRqoYGMpIGJMIGGMR8wHQYDVQQKExZDYXZpc3NvbiBT
eXN0ZW1zLCBJbmMuMSAwHgYJKoZIhvcNAQkBFhFpbmZvQGNhdmlzc29uLmNvbTEQ
MA4GA1UEBxMHRnJlbW9udDETMBEGA1UECBMKQ2FsaWZvcm5pYTELMAkGA1UEBhMC
VVMxDTALBgNVBAMTBFJvb3SCAQMwDQYJKoZIhvcNAQEEBQADgYEAm5POXJmeFOVK
ZZb9HON3pEczmPDCOtxv9B0Lc0jDulH0HbDkH0/xjdTYSg2CuFY/DrC6BjsVujjU
fRVkDk/8ZiNTawyoPUe2mlr15Q5KbcqpWtbw4iL8uDt8ySfcpFC4QhTsCRc7SWb0
njzdADJn+6P+uAkGbBtazfucbEiJyts=
-----END CERTIFICATE-----
Certificate:
    Data:
        Version: 3 (0x2)
        Serial Number: 3 (0x3)
        Signature Algorithm: md5WithRSAEncryption
        Issuer: O=Cavisson Systems, Inc./emailAddress=info@cavisson.com, L=Fremont, ST=California, C=US, CN=Root
        Validity
            Not Before: Aug 11 14:25:33 2009 GMT
            Not After : Aug  9 14:25:33 2019 GMT
        Subject: C=US, ST=California, O=Cavisson Systems, Inc., CN=Intermediate0
        Subject Public Key Info:
            Public Key Algorithm: rsaEncryption
            RSA Public Key: (1024 bit)
                Modulus (1024 bit):
                    00:a4:b2:48:a8:7b:f7:aa:62:d3:0d:d3:10:5f:7a:
                    13:e5:65:d5:e0:60:a4:4d:4e:71:a0:64:ff:21:ce:
                    4c:9a:24:47:12:47:af:19:5a:c7:d2:98:7b:4b:ea:
                    aa:f7:7d:51:09:f3:fa:c8:d2:7c:de:c8:95:29:73:
                    8f:db:39:48:70:3b:5a:8e:1a:00:16:7e:12:14:8b:
                    a5:2d:b3:74:d6:47:e3:0d:e3:5f:85:bd:32:e7:e5:
                    71:ac:a6:fe:f5:90:09:65:0b:dc:93:95:49:44:27:
                    51:5f:9e:ec:5c:33:ae:e3:c0:50:c8:52:19:26:be:
                    91:7e:d4:c2:37:b5:62:04:45
                Exponent: 65537 (0x10001)
        X509v3 extensions:
            X509v3 Basic Constraints: 
                CA:TRUE
            X509v3 Subject Key Identifier: 
                4F:DA:63:AC:20:BF:CB:F0:66:EA:1F:E6:1D:4F:E7:5F:FE:9D:F4:6A
            X509v3 Authority Key Identifier: 
                keyid:9C:B2:55:10:73:CA:AA:6E:46:08:48:0D:C5:C3:E6:B2:AB:5F:E1:1B
                DirName:/O=Cavisson Systems, Inc./emailAddress=info@cavisson.com/L=Fremont/ST=California/C=US/CN=Root
                serial:09

    Signature Algorithm: md5WithRSAEncryption
        06:91:92:f0:c6:00:d4:8e:c2:1f:47:13:98:87:7d:e2:0a:a7:
        7c:14:0e:31:7d:79:3d:16:11:29:04:34:7b:cb:bb:2a:07:d3:
        67:23:9c:b7:b7:57:bd:f9:d9:47:3d:c7:3b:af:75:88:5d:1c:
        2b:6f:6f:c1:98:a1:64:0b:87:5d:63:51:fc:5a:ac:fe:c4:e3:
        89:49:e3:8e:ac:61:2f:78:51:d6:29:38:c1:02:1e:ef:0d:a3:
        c6:84:52:a9:1e:ef:97:1a:3f:93:02:7c:a5:b0:a8:fa:55:db:
        dd:af:07:e5:de:17:a8:a2:33:ff:a8:4f:f1:90:8e:90:f7:d8:
        eb:02
-----BEGIN CERTIFICATE-----
MIIDPzCCAqigAwIBAgIBAzANBgkqhkiG9w0BAQQFADCBhjEfMB0GA1UEChMWQ2F2
aXNzb24gU3lzdGVtcywgSW5jLjEgMB4GCSqGSIb3DQEJARYRaW5mb0BjYXZpc3Nv
bi5jb20xEDAOBgNVBAcTB0ZyZW1vbnQxEzARBgNVBAgTCkNhbGlmb3JuaWExCzAJ
BgNVBAYTAlVTMQ0wCwYDVQQDEwRSb290MB4XDTA5MDgxMTE0MjUzM1oXDTE5MDgw
OTE0MjUzM1owWzELMAkGA1UEBhMCVVMxEzARBgNVBAgTCkNhbGlmb3JuaWExHzAd
BgNVBAoTFkNhdmlzc29uIFN5c3RlbXMsIEluYy4xFjAUBgNVBAMTDUludGVybWVk
aWF0ZTAwgZ8wDQYJKoZIhvcNAQEBBQADgY0AMIGJAoGBAKSySKh796pi0w3TEF96
E+Vl1eBgpE1OcaBk/yHOTJokRxJHrxlax9KYe0vqqvd9UQnz+sjSfN7IlSlzj9s5
SHA7Wo4aABZ+EhSLpS2zdNZH4w3jX4W9Muflcaym/vWQCWUL3JOVSUQnUV+e7Fwz
ruPAUMhSGSa+kX7Uwje1YgRFAgMBAAGjgeYwgeMwDAYDVR0TBAUwAwEB/zAdBgNV
HQ4EFgQUT9pjrCC/y/Bm6h/mHU/nX/6d9GowgbMGA1UdIwSBqzCBqIAUnLJVEHPK
qm5GCEgNxcPmsqtf4RuhgYykgYkwgYYxHzAdBgNVBAoTFkNhdmlzc29uIFN5c3Rl
bXMsIEluYy4xIDAeBgkqhkiG9w0BCQEWEWluZm9AY2F2aXNzb24uY29tMRAwDgYD
VQQHEwdGcmVtb250MRMwEQYDVQQIEwpDYWxpZm9ybmlhMQswCQYDVQQGEwJVUzEN
MAsGA1UEAxMEUm9vdIIBCTANBgkqhkiG9w0BAQQFAAOBgQAGkZLwxgDUjsIfRxOY
h33iCqd8FA4xfXk9FhEpBDR7y7sqB9NnI5y3t1e9+dlHPcc7r3WIXRwrb2/BmKFk
C4ddY1H8Wqz+xOOJSeOOrGEveFHWKTjBAh7vDaPGhFKpHu+XGj+TAnylsKj6Vdvd
rwfl3heoojP/qE/xkI6Q99jrAg==
-----END CERTIFICATE-----
-----BEGIN CERTIFICATE-----
MIIDazCCAtSgAwIBAgIBCTANBgkqhkiG9w0BAQQFADCBhjEfMB0GA1UEChMWQ2F2
aXNzb24gU3lzdGVtcywgSW5jLjEgMB4GCSqGSIb3DQEJARYRaW5mb0BjYXZpc3Nv
bi5jb20xEDAOBgNVBAcTB0ZyZW1vbnQxEzARBgNVBAgTCkNhbGlmb3JuaWExCzAJ
BgNVBAYTAlVTMQ0wCwYDVQQDEwRSb290MB4XDTA5MDgxMTE0MjUzMloXDTE5MDgw
OTE0MjUzMlowgYYxHzAdBgNVBAoTFkNhdmlzc29uIFN5c3RlbXMsIEluYy4xIDAe
BgkqhkiG9w0BCQEWEWluZm9AY2F2aXNzb24uY29tMRAwDgYDVQQHEwdGcmVtb250
MRMwEQYDVQQIEwpDYWxpZm9ybmlhMQswCQYDVQQGEwJVUzENMAsGA1UEAxMEUm9v
dDCBnzANBgkqhkiG9w0BAQEFAAOBjQAwgYkCgYEAxwZKgRGnvxUsESuL/HkXCZsH
pHqSLk3TflMG0DJ4V0YMeCIB9ykR4y4w7rNxo0qrf+/gXcwEIYmbW6ja8/T6ywDI
vYjneUQy4A8rqPSW55nBcTkK+l9EJMC27b+IMjVWCue/P+QNn0FArBuWvXnwUvo4
j/nVOuUUckR4hsuI+9MCAwEAAaOB5jCB4zAMBgNVHRMEBTADAQH/MB0GA1UdDgQW
BBScslUQc8qqbkYISA3Fw+ayq1/hGzCBswYDVR0jBIGrMIGogBScslUQc8qqbkYI
SA3Fw+ayq1/hG6GBjKSBiTCBhjEfMB0GA1UEChMWQ2F2aXNzb24gU3lzdGVtcywg
SW5jLjEgMB4GCSqGSIb3DQEJARYRaW5mb0BjYXZpc3Nvbi5jb20xEDAOBgNVBAcT
B0ZyZW1vbnQxEzARBgNVBAgTCkNhbGlmb3JuaWExCzAJBgNVBAYTAlVTMQ0wCwYD
VQQDEwRSb290ggEJMA0GCSqGSIb3DQEBBAUAA4GBAAvADTiZvG4j1MlvaFTdhAR4
IYdTKSXtgQ20nkpS5lFCQ6/efPRnr/mynE5zdy6jfDnsC8o5/ZrF5uLa0esq4qWi
/fi+eqPOzL6uDeiow8yXLzLhwT1ubzGrYUlsDc4wsERdyGeIZXjXPjKjcK18QE1X
ROSXwqKvhEqH/6IlxTqn
-----END CERTIFICATE-----
